(dp1
S'brevets'
p2
(lp3
(dp4
Vdocument-id
p5
(dp6
Vcountry
p7
(dp8
V$
VWO
p9
ssVkind
p10
(dp11
V$
VA1
p12
ssV@document-id-type
p13
Vdocdb
p14
sVdoc-number
p15
(dp16
V$
V2011015115
p17
sssV@family-id
p18
V43543927
p19
sV@system
p20
Vops.epo.org
p21
sa(dp22
Vdocument-id
p23
(dp24
Vcountry
p25
(dp26
V$
VCA
p27
ssVkind
p28
(dp29
V$
VA1
p30
ssV@document-id-type
p31
Vdocdb
p32
sVdoc-number
p33
(dp34
V$
V2694840
p35
sssV@family-id
p36
V39148594
p37
sV@system
p38
Vops.epo.org
p39
sa(dp40
Vdocument-id
p41
(dp42
Vcountry
p43
(dp44
V$
VWO
p45
ssVkind
p46
(dp47
V$
VA1
p48
ssV@document-id-type
p49
Vdocdb
p50
sVdoc-number
p51
(dp52
V$
V2007108663
p53
sssV@family-id
p54
V38522658
p55
sV@system
p56
Vops.epo.org
p57
sa(dp58
Vdocument-id
p59
(dp60
Vcountry
p61
(dp62
V$
VWO
p63
ssVkind
p64
(dp65
V$
VA1
p66
ssV@document-id-type
p67
Vdocdb
p68
sVdoc-number
p69
(dp70
V$
V2007091771
p71
sssV@family-id
p72
V38345342
p73
sV@system
p74
Vops.epo.org
p75
sa(dp76
Vdocument-id
p77
(dp78
Vcountry
p79
(dp80
V$
VWO
p81
ssVkind
p82
(dp83
V$
VA1
p84
ssV@document-id-type
p85
Vdocdb
p86
sVdoc-number
p87
(dp88
V$
V2007091761
p89
sssV@family-id
p90
V38345339
p91
sV@system
p92
Vops.epo.org
p93
sa(dp94
Vdocument-id
p95
(dp96
Vcountry
p97
(dp98
V$
VCA
p99
ssVkind
p100
(dp101
V$
VC
ssV@document-id-type
p102
Vdocdb
p103
sVdoc-number
p104
(dp105
V$
V1298439
p106
sssV@family-id
p107
V9354049
p108
sV@system
p109
Vops.epo.org
p110
sa(dp111
Vdocument-id
p112
(dp113
Vcountry
p114
(dp115
V$
VCA
p116
ssVkind
p117
(dp118
V$
VC
ssV@document-id-type
p119
Vdocdb
p120
sVdoc-number
p121
(dp122
V$
V1287993
p123
sssV@family-id
p124
V9352947
p125
sV@system
p126
Vops.epo.org
p127
sa(dp128
Vdocument-id
p129
(dp130
Vcountry
p131
(dp132
V$
VCA
p133
ssVkind
p134
(dp135
V$
VA
ssV@document-id-type
p136
Vdocdb
p137
sVdoc-number
p138
(dp139
V$
V1256700
p140
sssV@family-id
p141
V9315856
p142
sV@system
p143
Vops.epo.org
p144
sa(dp145
Vdocument-id
p146
(dp147
Vcountry
p148
(dp149
V$
VCA
p150
ssVkind
p151
(dp152
V$
VA
ssV@document-id-type
p153
Vdocdb
p154
sVdoc-number
p155
(dp156
V$
V989177
p157
sssV@family-id
p158
V9098733
p159
sV@system
p160
Vops.epo.org
p161
sa(dp162
Vdocument-id
p163
(dp164
Vcountry
p165
(dp166
V$
VCA
p167
ssVkind
p168
(dp169
V$
VA
ssV@document-id-type
p170
Vdocdb
p171
sVdoc-number
p172
(dp173
V$
V931760
p174
sssV@family-id
p175
V9049434
p176
sV@system
p177
Vops.epo.org
p178
sasS'requete'
p179
S'lentille'
p180
sS'number'
p181
I10
s.