(dp1
S'brevets'
p2
(lp3
(dp4
Vdocument-id
p5
(dp6
Vcountry
p7
(dp8
V$
VWO
p9
ssVkind
p10
(dp11
V$
VA1
p12
ssV@document-id-type
p13
Vdocdb
p14
sVdoc-number
p15
(dp16
V$
V2011015115
p17
sssV@family-id
p18
V43543927
p19
sV@system
p20
Vops.epo.org
p21
sa(dp22
Vdocument-id
p23
(dp24
Vcountry
p25
(dp26
V$
VCA
p27
ssVkind
p28
(dp29
V$
VA1
p30
ssV@document-id-type
p31
Vdocdb
p32
sVdoc-number
p33
(dp34
V$
V2694840
p35
sssV@family-id
p36
V39148594
p37
sV@system
p38
Vops.epo.org
p39
sa(dp40
Vdocument-id
p41
(dp42
Vcountry
p43
(dp44
V$
VWO
p45
ssVkind
p46
(dp47
V$
VA1
p48
ssV@document-id-type
p49
Vdocdb
p50
sVdoc-number
p51
(dp52
V$
V2007108663
p53
sssV@family-id
p54
V38522658
p55
sV@system
p56
Vops.epo.org
p57
sa(dp58
Vdocument-id
p59
(dp60
Vcountry
p61
(dp62
V$
VWO
p63
ssVkind
p64
(dp65
V$
VA1
p66
ssV@document-id-type
p67
Vdocdb
p68
sVdoc-number
p69
(dp70
V$
V2007091771
p71
sssV@family-id
p72
V38345342
p73
sV@system
p74
Vops.epo.org
p75
sa(dp76
Vdocument-id
p77
(dp78
Vcountry
p79
(dp80
V$
VWO
p81
ssVkind
p82
(dp83
V$
VA1
p84
ssV@document-id-type
p85
Vdocdb
p86
sVdoc-number
p87
(dp88
V$
V2007091761
p89
sssV@family-id
p90
V38345339
p91
sV@system
p92
Vops.epo.org
p93
sa(dp94
Vdocument-id
p95
(dp96
Vcountry
p97
(dp98
V$
VCH
p99
ssVkind
p100
(dp101
V$
VA5
p102
ssV@document-id-type
p103
Vdocdb
p104
sVdoc-number
p105
(dp106
V$
V681276
p107
sssV@family-id
p108
V4218397
p109
sV@system
p110
Vops.epo.org
p111
sa(dp112
Vdocument-id
p113
(dp114
Vcountry
p115
(dp116
V$
VCA
p117
ssVkind
p118
(dp119
V$
VC
ssV@document-id-type
p120
Vdocdb
p121
sVdoc-number
p122
(dp123
V$
V1298439
p124
sssV@family-id
p125
V9354049
p126
sV@system
p127
Vops.epo.org
p128
sa(dp129
Vdocument-id
p130
(dp131
Vcountry
p132
(dp133
V$
VCA
p134
ssVkind
p135
(dp136
V$
VC
ssV@document-id-type
p137
Vdocdb
p138
sVdoc-number
p139
(dp140
V$
V1287993
p141
sssV@family-id
p142
V9352947
p143
sV@system
p144
Vops.epo.org
p145
sa(dp146
Vdocument-id
p147
(dp148
Vcountry
p149
(dp150
V$
VCA
p151
ssVkind
p152
(dp153
V$
VA
ssV@document-id-type
p154
Vdocdb
p155
sVdoc-number
p156
(dp157
V$
V1256700
p158
sssV@family-id
p159
V9315856
p160
sV@system
p161
Vops.epo.org
p162
sa(dp163
Vdocument-id
p164
(dp165
Vcountry
p166
(dp167
V$
VCA
p168
ssVkind
p169
(dp170
V$
VA
ssV@document-id-type
p171
Vdocdb
p172
sVdoc-number
p173
(dp174
V$
V989177
p175
sssV@family-id
p176
V9098733
p177
sV@system
p178
Vops.epo.org
p179
sa(dp180
Vdocument-id
p181
(dp182
Vcountry
p183
(dp184
V$
VCA
p185
ssVkind
p186
(dp187
V$
VA
ssV@document-id-type
p188
Vdocdb
p189
sVdoc-number
p190
(dp191
V$
V931760
p192
sssV@family-id
p193
V9049434
p194
sV@system
p195
Vops.epo.org
p196
sasS'requete'
p197
S'TA=lentille'
p198
sS'number'
p199
I11
s.