(lp1
(dp2
S'classification'
p3
(lp4
S'A61M16/00'
p5
aS'A61M1/00'
p6
asS'CPC'
p7
(lp8
S''
asS'Citations'
p9
I0
sS'references'
p10
I0
sS'year'
p11
(lp12
S'2015'
p13
asS'label'
p14
S'CN204671687'
p15
sS'Applicant-Country'
p16
S''
sS'prior-Date'
p17
(lp18
S'2015-05-07'
p19
asS'CitP'
p20
S''
sS'prior-dateDate'
p21
(lp22
cdatetime
date
p23
(S'\x07\xdf\x05\x07'
tRp24
asS'IPCR11'
p25
(lp26
S''
asS'CitO'
p27
S''
sS'dateDate'
p28
g23
(S'\x07\xdf\t\x1e'
tRp29
sS'inventor-nice'
p30
(lp31
S'LiuYuhao'
p32
asS'equivalents'
p33
(lp34
S'CN204671687U'
p35
asS'CitedBy'
p36
(lp37
sS'representative'
p38
I0
sS'Inventor-Country'
p39
S''
sS'date'
p40
(lp41
S'2015-09-30'
p42
asS'inventor'
p43
(lp44
S'LIU YUHAO'
p45
asS'kind'
p46
S'U'
sS'priority-active-indicator'
p47
I0
sS'applicant-nice'
p48
(lp49
S'QingdaoMunicipalHospital'
p50
asS'IPCR1'
p51
(lp52
S'A'
asS'country'
p53
(lp54
S'CN'
p55
asS'IPCR3'
p56
(lp57
S'A61'
p58
asS'applicant'
p59
(lp60
S'QINGDAO MUNICIPAL HOSPITAL'
p61
asS'IPCR4'
p62
(lp63
S'A61M'
p64
asS'IPCR7'
p65
(lp66
S'A61M16'
p67
aS'A61M1'
p68
asS'title'
p69
S'Intracardiac respirator for branch of academic or vocational study'
p70
sS'application-ref'
p71
F1
sa(dp72
S'classification'
p73
(lp74
S'A61M16/00'
p75
aS'A61M1/00'
p76
asS'CPC'
p77
(lp78
S''
asS'Citations'
p79
I0
sS'references'
p80
I0
sS'year'
p81
(lp82
S'2015'
p83
asS'label'
p84
S'CN204501985'
p85
sS'Applicant-Country'
p86
S''
sS'prior-Date'
p87
(lp88
S'2015-02-27'
p89
asS'CitP'
p90
S''
sS'prior-dateDate'
p91
(lp92
g23
(S'\x07\xdf\x02\x1b'
tRp93
asS'IPCR11'
p94
(lp95
S''
asS'CitO'
p96
S''
sS'dateDate'
p97
g23
(S'\x07\xdf\x07\x1d'
tRp98
sS'inventor-nice'
p99
(lp100
S'YouJiaping'
p101
aS'HuZishui'
p102
aS'RenGuanggan'
p103
aS'MaBencun'
p104
aS'HeJunxiu'
p105
asS'equivalents'
p106
(lp107
S'CN204501985U'
p108
asS'CitedBy'
p109
(lp110
sS'representative'
p111
I0
sS'Inventor-Country'
p112
S''
sS'date'
p113
(lp114
S'2015-07-29'
p115
asS'inventor'
p116
(lp117
S'YOU JIAPING'
p118
aS'HU ZISHUI'
p119
aS'REN GUANGGAN'
p120
aS'MA BENCUN'
p121
aS'HE JUNXIU'
p122
asS'kind'
p123
S'U'
sS'priority-active-indicator'
p124
I0
sS'applicant-nice'
p125
(lp126
S'YouJiaping'
p127
asS'IPCR1'
p128
(lp129
S'A'
asS'country'
p130
(lp131
S'CN'
p132
asS'IPCR3'
p133
(lp134
S'A61'
p135
asS'applicant'
p136
(lp137
S'YOU JIAPING'
p138
asS'IPCR4'
p139
(lp140
S'A61M'
p141
asS'IPCR7'
p142
(lp143
S'A61M16'
p144
aS'A61M1'
p145
asS'title'
p146
S'Inhale phlegm formula respirator'
p147
sS'application-ref'
p148
F1
sa(dp149
S'classification'
p150
(lp151
S'A61M16/00'
p152
aS'A61M1/00'
p153
asS'CPC'
p154
(lp155
S''
asS'Citations'
p156
I0
sS'references'
p157
I0
sS'year'
p158
(lp159
S'2015'
p160
asS'label'
p161
S'CN204446856'
p162
sS'Applicant-Country'
p163
S''
sS'prior-Date'
p164
(lp165
S'2015-01-15'
p166
asS'CitP'
p167
S''
sS'prior-dateDate'
p168
(lp169
g23
(S'\x07\xdf\x01\x0f'
tRp170
asS'IPCR11'
p171
(lp172
S''
asS'CitO'
p173
S''
sS'dateDate'
p174
g23
(S'\x07\xdf\x07\x08'
tRp175
sS'inventor-nice'
p176
(lp177
S'GaoLinben'
p178
asS'equivalents'
p179
(lp180
S'CN204446856U'
p181
asS'CitedBy'
p182
(lp183
sS'representative'
p184
I0
sS'Inventor-Country'
p185
S''
sS'date'
p186
(lp187
S'2015-07-08'
p188
asS'inventor'
p189
(lp190
S'GAO LINBEN'
p191
asS'kind'
p192
S'U'
sS'priority-active-indicator'
p193
I0
sS'applicant-nice'
p194
(lp195
S'GaoLinben'
p196
asS'IPCR1'
p197
(lp198
S'A'
asS'country'
p199
(lp200
S'CN'
p201
asS'IPCR3'
p202
(lp203
S'A61'
p204
asS'applicant'
p205
(lp206
S'GAO LINBEN'
p207
asS'IPCR4'
p208
(lp209
S'A61M'
p210
asS'IPCR7'
p211
(lp212
S'A61M16'
p213
aS'A61M1'
p214
asS'title'
p215
S'Intelligent artificial respirator'
p216
sS'application-ref'
p217
F1
sa(dp218
S'classification'
p219
(lp220
S'A61M16/00'
p221
aS'A61B5/02'
p222
aS'A61M1/00'
p223
asS'CPC'
p224
(lp225
S''
asS'Citations'
p226
I0
sS'references'
p227
I0
sS'year'
p228
(lp229
S'2015'
p230
asS'label'
p231
S'CN204092769'
p232
sS'Applicant-Country'
p233
S''
sS'prior-Date'
p234
(lp235
S'2014-09-30'
p236
asS'CitP'
p237
S''
sS'prior-dateDate'
p238
(lp239
g23
(S'\x07\xde\t\x1e'
tRp240
asS'IPCR11'
p241
(lp242
S''
asS'CitO'
p243
S''
sS'dateDate'
p244
g23
(S'\x07\xdf\x01\x0e'
tRp245
sS'inventor-nice'
p246
(lp247
S'ShiYumei'
p248
aS'ZhengHongyan'
p249
asS'equivalents'
p250
(lp251
S'CN204092769U'
p252
asS'CitedBy'
p253
(lp254
sS'representative'
p255
I0
sS'Inventor-Country'
p256
S''
sS'date'
p257
(lp258
S'2015-01-14'
p259
asS'inventor'
p260
(lp261
S'SHI YUMEI'
p262
aS'ZHENG HONGYAN'
p263
asS'kind'
p264
S'U'
sS'priority-active-indicator'
p265
I0
sS'applicant-nice'
p266
(lp267
S'ShiYumei'
p268
asS'IPCR1'
p269
(lp270
S'A'
asS'country'
p271
(lp272
S'CN'
p273
asS'IPCR3'
p274
(lp275
S'A61'
p276
asS'applicant'
p277
(lp278
S'SHI YUMEI'
p279
asS'IPCR4'
p280
(lp281
S'A61M'
p282
asS'IPCR7'
p283
(lp284
S'A61M16'
p285
aS'A61B5'
p286
aS'A61M1'
p287
asS'title'
p288
S'Simple artificial respirator'
p289
sS'application-ref'
p290
F1
sa(dp291
S'classification'
p292
(lp293
S'A61M16/00'
p294
aS'A61M1/00'
p295
asS'CPC'
p296
(lp297
S''
asS'Citations'
p298
I0
sS'references'
p299
I0
sS'year'
p300
(lp301
S'2014'
p302
asS'label'
p303
S'CN203898874'
p304
sS'Applicant-Country'
p305
S''
sS'prior-Date'
p306
(lp307
S'2014-04-30'
p308
asS'CitP'
p309
S''
sS'prior-dateDate'
p310
(lp311
g23
(S'\x07\xde\x04\x1e'
tRp312
asS'IPCR11'
p313
(lp314
S''
asS'CitO'
p315
S''
sS'dateDate'
p316
g23
(S'\x07\xde\n\x1d'
tRp317
sS'inventor-nice'
p318
(lp319
S'HuangWeili'
p320
asS'equivalents'
p321
(lp322
S'CN203898874U'
p323
asS'CitedBy'
p324
(lp325
sS'representative'
p326
I0
sS'Inventor-Country'
p327
S''
sS'date'
p328
(lp329
S'2014-10-29'
p330
asS'inventor'
p331
(lp332
S'HUANG WEILI'
p333
asS'kind'
p334
S'U'
sS'priority-active-indicator'
p335
I0
sS'applicant-nice'
p336
(lp337
S'HuangWeili'
p338
asS'IPCR1'
p339
(lp340
S'A'
asS'country'
p341
(lp342
S'CN'
p343
asS'IPCR3'
p344
(lp345
S'A61'
p346
asS'applicant'
p347
(lp348
S'HUANG WEILI'
p349
asS'IPCR4'
p350
(lp351
S'A61M'
p352
asS'IPCR7'
p353
(lp354
S'A61M16'
p355
aS'A61M1'
p356
asS'title'
p357
S'Expectoration amount monitoring alarm device for respirator'
p358
sS'application-ref'
p359
F1
sa(dp360
S'classification'
p361
(lp362
S'A61M16/22'
p363
aS'A61M1/00'
p364
asS'CPC'
p365
(lp366
S''
asS'Citations'
p367
I0
sS'references'
p368
I0
sS'year'
p369
(lp370
S'2013'
p371
asS'label'
p372
S'CN203263989'
p373
sS'Applicant-Country'
p374
S''
sS'prior-Date'
p375
(lp376
S'2013-05-20'
p377
asS'CitP'
p378
S''
sS'prior-dateDate'
p379
(lp380
g23
(S'\x07\xdd\x05\x14'
tRp381
asS'IPCR11'
p382
(lp383
S'A61M16/22'
p384
aS''
asS'CitO'
p385
S''
sS'dateDate'
p386
g23
(S'\x07\xdd\x0b\x06'
tRp387
sS'inventor-nice'
p388
(lp389
S'FangLin'
p390
asS'equivalents'
p391
(lp392
S'CN203263989U'
p393
asS'CitedBy'
p394
(lp395
sS'representative'
p396
I0
sS'Inventor-Country'
p397
S''
sS'date'
p398
(lp399
S'2013-11-06'
p400
asS'inventor'
p401
(lp402
S'FANG LIN'
p403
asS'kind'
p404
S'U'
sS'priority-active-indicator'
p405
I0
sS'applicant-nice'
p406
(lp407
S'FangLin'
p408
asS'IPCR1'
p409
(lp410
S'A'
asS'country'
p411
(lp412
S'CN'
p413
asS'IPCR3'
p414
(lp415
S'A61'
p416
asS'applicant'
p417
(lp418
S'FANG LIN'
p419
asS'IPCR4'
p420
(lp421
S'A61M'
p422
asS'IPCR7'
p423
(lp424
S'A61M16'
p425
aS'A61M1'
p426
asS'title'
p427
S'Extension pipe of oxygen bag type respirator'
p428
sS'application-ref'
p429
F1
sa(dp430
S'classification'
p431
(lp432
S'A61M16/00'
p433
aS'A61M1/00'
p434
asS'CPC'
p435
(lp436
S''
asS'Citations'
p437
I0
sS'references'
p438
I0
sS'year'
p439
(lp440
S'2013'
p441
asS'label'
p442
S'CN203123227'
p443
sS'Applicant-Country'
p444
S''
sS'prior-Date'
p445
(lp446
S'2013-01-11'
p447
asS'CitP'
p448
S''
sS'prior-dateDate'
p449
(lp450
g23
(S'\x07\xdd\x01\x0b'
tRp451
asS'IPCR11'
p452
(lp453
S''
asS'CitO'
p454
S''
sS'dateDate'
p455
g23
(S'\x07\xdd\x08\x0e'
tRp456
sS'inventor-nice'
p457
(lp458
S'ShiYan'
p459
aS'CaiMaolin'
p460
aS'XuWeiqing'
p461
asS'equivalents'
p462
(lp463
S'CN203123227U'
p464
asS'CitedBy'
p465
(lp466
sS'representative'
p467
I0
sS'Inventor-Country'
p468
S''
sS'date'
p469
(lp470
S'2013-08-14'
p471
asS'inventor'
p472
(lp473
S'SHI YAN'
p474
aS'CAI MAOLIN'
p475
aS'XU WEIQING'
p476
asS'kind'
p477
S'U'
sS'priority-active-indicator'
p478
I0
sS'applicant-nice'
p479
(lp480
S'UnivBeihang'
p481
asS'IPCR1'
p482
(lp483
S'A'
asS'country'
p484
(lp485
S'CN'
p486
asS'IPCR3'
p487
(lp488
S'A61'
p489
asS'applicant'
p490
(lp491
S'UNIV BEIHANG'
p492
asS'IPCR4'
p493
(lp494
S'A61M'
p495
asS'IPCR7'
p496
(lp497
S'A61M16'
p498
aS'A61M1'
p499
asS'title'
p500
S'Respirator with sputum excretion function'
p501
sS'application-ref'
p502
F1
sa(dp503
S'classification'
p504
(lp505
S'A61M16/00'
p506
aS'A61M1/00'
p507
asS'CPC'
p508
(lp509
S''
asS'Citations'
p510
I0
sS'references'
p511
I0
sS'year'
p512
(lp513
S'2013'
p514
asS'label'
p515
S'CN202859823'
p516
sS'Applicant-Country'
p517
S''
sS'prior-Date'
p518
(lp519
S'2012-06-08'
p520
asS'CitP'
p521
S''
sS'prior-dateDate'
p522
(lp523
g23
(S'\x07\xdc\x06\x08'
tRp524
asS'IPCR11'
p525
(lp526
S''
asS'CitO'
p527
S''
sS'dateDate'
p528
g23
(S'\x07\xdd\x04\n'
tRp529
sS'inventor-nice'
p530
(lp531
S'WangJiasong'
p532
asS'equivalents'
p533
(lp534
S'CN202859823U'
p535
asS'CitedBy'
p536
(lp537
sS'representative'
p538
I0
sS'Inventor-Country'
p539
S''
sS'date'
p540
(lp541
S'2013-04-10'
p542
asS'inventor'
p543
(lp544
S'WANG JIASONG'
p545
asS'kind'
p546
S'U'
sS'priority-active-indicator'
p547
I0
sS'applicant-nice'
p548
(lp549
S'WangJiasong'
p550
asS'IPCR1'
p551
(lp552
S'A'
asS'country'
p553
(lp554
S'CN'
p555
asS'IPCR3'
p556
(lp557
S'A61'
p558
asS'applicant'
p559
(lp560
S'WANG JIASONG'
p561
asS'IPCR4'
p562
(lp563
S'A61M'
p564
asS'IPCR7'
p565
(lp566
S'A61M16'
p567
aS'A61M1'
p568
asS'title'
p569
S'Multifunctional laryngeal respirator'
p570
sS'application-ref'
p571
F1
sa(dp572
S'classification'
p573
(lp574
S'A61M16/00'
p575
aS'A61M1/00'
p576
asS'CPC'
p577
(lp578
S''
asS'Citations'
p579
I0
sS'references'
p580
I0
sS'year'
p581
(lp582
S'2012'
p583
asS'label'
p584
S'CN202538100'
p585
sS'Applicant-Country'
p586
S''
sS'prior-Date'
p587
(lp588
S'2012-03-08'
p589
asS'CitP'
p590
S''
sS'prior-dateDate'
p591
(lp592
g23
(S'\x07\xdc\x03\x08'
tRp593
asS'IPCR11'
p594
(lp595
S''
asS'CitO'
p596
S''
sS'dateDate'
p597
g23
(S'\x07\xdc\x0b\x15'
tRp598
sS'inventor-nice'
p599
(lp600
S'XinbenWang'
p601
aS'XinchunZhou'
p602
aS'XiulianXun'
p603
asS'equivalents'
p604
(lp605
S'CN202538100U'
p606
asS'CitedBy'
p607
(lp608
sS'representative'
p609
I0
sS'Inventor-Country'
p610
S''
sS'date'
p611
(lp612
S'2012-11-21'
p613
asS'inventor'
p614
(lp615
S'XINBEN WANG'
p616
aS'XINCHUN ZHOU'
p617
aS'XIULIAN XUN'
p618
asS'kind'
p619
S'U'
sS'priority-active-indicator'
p620
I0
sS'applicant-nice'
p621
(lp622
S'XinbenWang'
p623
asS'IPCR1'
p624
(lp625
S'A'
asS'country'
p626
(lp627
S'CN'
p628
asS'IPCR3'
p629
(lp630
S'A61'
p631
asS'applicant'
p632
(lp633
S'XINBEN WANG'
p634
asS'IPCR4'
p635
(lp636
S'A61M'
p637
asS'IPCR7'
p638
(lp639
S'A61M16'
p640
aS'A61M1'
p641
asS'title'
p642
S'Artificial respirator with sputum aspiration function'
p643
sS'application-ref'
p644
F1
sa(dp645
S'classification'
p646
(lp647
S'A61H31/02'
p648
aS'A61M1/00'
p649
asS'CPC'
p650
(lp651
S''
asS'Citations'
p652
I0
sS'references'
p653
I0
sS'year'
p654
(lp655
S'2010'
p656
asS'label'
p657
S'CN101756782'
p658
sS'Applicant-Country'
p659
S''
sS'prior-Date'
p660
(lp661
S'2009-09-25'
p662
asS'CitP'
p663
S''
sS'prior-dateDate'
p664
(lp665
g23
(S'\x07\xd9\t\x19'
tRp666
asS'IPCR11'
p667
(lp668
S'A61H31/02'
p669
aS''
asS'CitO'
p670
S''
sS'dateDate'
p671
g23
(S'\x07\xda\x06\x1e'
tRp672
sS'inventor-nice'
p673
(lp674
S'FuxuYang'
p675
asS'equivalents'
p676
(lp677
S'CN101756782'
p678
asS'CitedBy'
p679
(lp680
sS'representative'
p681
I0
sS'Inventor-Country'
p682
S''
sS'date'
p683
(lp684
S'2010-06-30'
p685
asS'inventor'
p686
(lp687
S'FUXU YANG'
p688
asS'kind'
p689
S'A'
sS'priority-active-indicator'
p690
I0
sS'applicant-nice'
p691
(lp692
S'FuxuYang'
p693
asS'IPCR1'
p694
(lp695
S'A'
asS'country'
p696
(lp697
S'CN'
p698
asS'IPCR3'
p699
(lp700
S'A61'
p701
asS'applicant'
p702
(lp703
S'FUXU YANG'
p704
asS'IPCR4'
p705
(lp706
S'A61H'
p707
aS'A61M'
p708
asS'IPCR7'
p709
(lp710
S'A61H31'
p711
aS'A61M1'
p712
asS'title'
p713
S'Manual respirator'
p714
sS'application-ref'
p715
F1
sa(dp716
S'classification'
p717
(lp718
S'A61M1/00'
p719
aS'A61M16/00'
p720
asS'CPC'
p721
(lp722
S''
asS'Citations'
p723
I0
sS'references'
p724
I0
sS'year'
p725
(lp726
S'2009'
p727
asS'label'
p728
S'CN201290920'
p729
sS'Applicant-Country'
p730
(lp731
S'CN'
p732
asS'prior-Date'
p733
(lp734
S'2008-10-29'
p735
asS'CitP'
p736
S''
sS'prior-dateDate'
p737
(lp738
g23
(S'\x07\xd8\n\x1d'
tRp739
asS'IPCR11'
p740
(lp741
S''
asS'CitO'
p742
S''
sS'dateDate'
p743
g23
(S'\x07\xd9\x08\x13'
tRp744
sS'inventor-nice'
p745
(lp746
S'YingxinHu'
p747
asS'equivalents'
p748
(lp749
S'CN201290920Y'
p750
asS'CitedBy'
p751
(lp752
sS'representative'
p753
I0
sS'Inventor-Country'
p754
(lp755
S'CN'
p756
asS'date'
p757
(lp758
S'2009-08-19'
p759
asS'inventor'
p760
(lp761
S'YINGXIN HU'
p762
asS'kind'
p763
S'Y'
sS'priority-active-indicator'
p764
I0
sS'applicant-nice'
p765
(lp766
S'YingxinHu'
p767
asS'IPCR1'
p768
(lp769
S'A'
asS'country'
p770
(lp771
S'CN'
p772
asS'IPCR3'
p773
(lp774
S'A61'
p775
asS'applicant'
p776
(lp777
S'YINGXIN HU'
p778
asS'IPCR4'
p779
(lp780
S'A61M'
p781
asS'IPCR7'
p782
(lp783
S'A61M1'
p784
aS'A61M16'
p785
asS'title'
p786
S'Phlegm-suction respirator respiration alternative control device'
p787
sS'application-ref'
p788
F1
sa(dp789
S'classification'
p790
(lp791
S'A61B17/24'
p792
aS'A61B17/50'
p793
asS'CPC'
p794
(lp795
S'A61B17/24'
p796
aS'A61B17/50'
p797
aNaNaNaNaNasS'Citations'
p798
I11
sS'references'
p799
I5
sS'year'
p800
(lp801
S'1976'
p802
asS'label'
p803
S'US3946736'
p804
sS'Applicant-Country'
p805
S''
sS'prior-Date'
p806
(lp807
S'1974-10-18'
p808
asS'CitP'
p809
(lp810
S'US2756742'
p811
aS'US3050062'
p812
aS'US3543751'
p813
aS'US3730179'
p814
aS'US3809079'
p815
asS'prior-dateDate'
p816
(lp817
g23
(S'\x07\xb6\n\x12'
tRp818
asS'IPCR11'
p819
(lp820
S'A61B17/24'
p821
aS'A61B17/50'
p822
asS'CitO'
p823
(lp824
sS'dateDate'
p825
g23
(S'\x07\xb8\x03\x1e'
tRp826
sS'inventor-nice'
p827
(lp828
S'NewardTheodoreC'
p829
asS'equivalents'
p830
(lp831
S'US3946736'
p832
asS'CitedBy'
p833
(lp834
S'US2014163325'
p835
aS'WO2012091949'
p836
aS'WO2011084133'
p837
aS'US2009228018'
p838
aS'US2005065411'
p839
aS'US6478770'
p840
aS'US4196724'
p841
aS'US5782837'
p842
aS'US5013320'
p843
aS'WO9902203'
p844
aS'US5373859'
p845
asS'representative'
p846
I0
sS'Inventor-Country'
p847
S''
sS'date'
p848
(lp849
S'1976-03-30'
p850
asS'inventor'
p851
(lp852
S'NEWARD THEODORE C'
p853
asS'kind'
p854
S'A'
sS'priority-active-indicator'
p855
I0
sS'applicant-nice'
p856
(lp857
S'NewardTheodoreC'
p858
asS'IPCR1'
p859
(lp860
S'A'
asS'country'
p861
(lp862
S'US'
p863
asS'IPCR3'
p864
(lp865
S'A61'
p866
asS'applicant'
p867
(lp868
S'NEWARD THEODORE C'
p869
asS'IPCR4'
p870
(lp871
S'A61B'
p872
asS'IPCR7'
p873
(lp874
S'A61B17'
p875
asS'title'
p876
S'RESPIRATOR ASSIST DEVICE'
p877
sS'application-ref'
p878
F1
sa(dp879
S'classification'
p880
(lp881
S'A61M1/00'
p882
aS'A61M16/04'
p883
aS'A61M16/20'
p884
asS'CPC'
p885
(lp886
S'A61M1/0031'
p887
aS'A61M16/0463'
p888
aS'A61M16/202'
p889
aS'A61M16/0465'
p890
aNaNaNaNaNaNaNasS'Citations'
p891
I2
sS'references'
p892
I26
sS'year'
p893
(lp894
S'2004'
p895
asS'label'
p896
S'US2004107967'
p897
sS'Applicant-Country'
p898
S''
sS'prior-Date'
p899
(lp900
S'2001-03-14'
p901
aS'2002-03-14'
p902
asS'CitP'
p903
(lp904
S'US2967525'
p905
aS'US4981466'
p906
aS'US2972345'
p907
aS'US3234932'
p908
aS'US4805611'
p909
aS'US3719197'
p910
aS'US5400778'
p911
aS'US6550475'
p912
aS'US5315992'
p913
aS'US5419314'
p914
aS'US6568388'
p915
aS'US4456008'
p916
aS'US4751924'
p917
aS'US5322057'
p918
aS'US3682166'
p919
aS'US5661336'
p920
aS'US6102042'
p921
aS'US4351328'
p922
aS'US4867153'
p923
aS'US5345928'
p924
aS'US5676133'
p925
aS'US6298848'
p926
aS'US3991762'
p927
aS'US4233984'
p928
aS'US5269035'
p929
aS'US5582167'
p930
asS'prior-dateDate'
p931
(lp932
g23
(S'\x07\xd1\x03\x0e'
tRp933
ag23
(S'\x07\xd2\x03\x0e'
tRp934
asS'IPCR11'
p935
(lp936
S''
aS'A61M16/04'
p937
aS'A61M16/20'
p938
asS'CitO'
p939
(lp940
sS'dateDate'
p941
g23
(S'\x07\xd4\x06\n'
tRp942
sS'inventor-nice'
p943
(lp944
S'FlodinBjorn'
p945
asS'equivalents'
p946
(lp947
S'US2004107967'
p948
aS'SE522948'
p949
aS'WO02072184'
p950
asS'CitedBy'
p951
(lp952
S'JP2014068690'
p953
aS'US2008245366'
p954
asS'representative'
p955
I0
sS'Inventor-Country'
p956
(lp957
S'SE'
p958
asS'date'
p959
(lp960
S'2004-06-10'
p961
asS'inventor'
p962
(lp963
S'FLODIN BJORN'
p964
asS'kind'
p965
S'A1'
p966
sS'priority-active-indicator'
p967
I0
sS'applicant-nice'
p968
(lp969
S'Empty'
p970
asS'IPCR1'
p971
(lp972
S'A'
asS'country'
p973
(lp974
S'US'
p975
asS'IPCR3'
p976
(lp977
S'A61'
p978
asS'applicant'
p979
(lp980
S'empty'
p981
asS'IPCR4'
p982
(lp983
S'A61M'
p984
asS'IPCR7'
p985
(lp986
S'A61M16'
p987
asS'title'
p988
S'Device for a respirator'
p989
sS'application-ref'
p990
F1
sa(dp991
S'classification'
p992
(lp993
S'A61M1/00'
p994
aS'A61M16/00'
p995
asS'CPC'
p996
(lp997
S'A61M1/0066'
p998
aS'A61M16/0057'
p999
aNaNasS'Citations'
p1000
I5
sS'references'
p1001
I7
sS'year'
p1002
(lp1003
S'1967'
p1004
asS'label'
p1005
S'US3323521'
p1006
sS'Applicant-Country'
p1007
S''
sS'prior-Date'
p1008
(lp1009
S'1962-10-31'
p1010
asS'CitP'
p1011
(lp1012
S'US2383181'
p1013
aS'US2737177'
p1014
aS'US3105488'
p1015
aS'US3106204'
p1016
aS'US3115138'
p1017
aS'US3185147'
p1018
aS'FR1237217'
p1019
asS'prior-dateDate'
p1020
(lp1021
g23
(S'\x07\xaa\n\x1f'
tRp1022
asS'IPCR11'
p1023
(lp1024
S''
asS'CitO'
p1025
(lp1026
sS'dateDate'
p1027
g23
(S'\x07\xaf\x06\x06'
tRp1028
sS'inventor-nice'
p1029
(lp1030
S'YehudaIsk'
p1031
asS'equivalents'
p1032
(lp1033
S'US3323521'
p1034
asS'CitedBy'
p1035
(lp1036
S'DE102014223396'
p1037
aS'US5313938'
p1038
aS'US3515135'
p1039
aS'FR2601594'
p1040
aS'EP0310613'
p1041
asS'representative'
p1042
I0
sS'Inventor-Country'
p1043
S''
sS'date'
p1044
(lp1045
S'1967-06-06'
p1046
asS'inventor'
p1047
(lp1048
S'YEHUDA ISK'
p1049
asS'kind'
p1050
S'A'
sS'priority-active-indicator'
p1051
I0
sS'applicant-nice'
p1052
(lp1053
S'Empty'
p1054
asS'IPCR1'
p1055
(lp1056
S'A'
asS'country'
p1057
(lp1058
S'US'
p1059
asS'IPCR3'
p1060
(lp1061
S'A61'
p1062
asS'applicant'
p1063
(lp1064
S'empty'
p1065
asS'IPCR4'
p1066
(lp1067
S'A61M'
p1068
asS'IPCR7'
p1069
(lp1070
S'A61M1'
p1071
aS'A61M16'
p1072
asS'title'
p1073
S'Respirator'
p1074
sS'application-ref'
p1075
F1
sa(dp1076
S'classification'
p1077
(lp1078
S'A61M1/00'
p1079
aS'A61M16/04'
p1080
aS'F16K5/02'
p1081
aS'A61M25/01'
p1082
asS'CPC'
p1083
(lp1084
S'A61M1/0064'
p1085
aS'A61M16/0463'
p1086
aS'F16K5/0207'
p1087
aS'A61M1/0043'
p1088
aS'A61M25/0111'
p1089
aS'Y10S128/912'
p1090
aNaNaNaNaNasS'Citations'
p1091
I151
sS'references'
p1092
I42
sS'year'
p1093
(lp1094
S'1994'
p1095
asS'label'
p1096
S'US5333606'
p1097
sS'Applicant-Country'
p1098
(lp1099
S'US'
p1100
asS'prior-Date'
p1101
(lp1102
S'1993-06-23'
p1103
aS'1992-04-24'
p1104
asS'CitP'
p1105
(lp1106
S'US1588336'
p1107
aS'US1952451'
p1108
aS'US3292442'
p1109
aS'US3825001'
p1110
aS'US3991762'
p1111
aS'US4240417'
p1112
aS'US4346702'
p1113
aS'US4351328'
p1114
aS'US4426062'
p1115
aS'US4475548'
p1116
aS'US4510933'
p1117
aS'US4621633'
p1118
aS'US4691702'
p1119
aS'US4696296'
p1120
aS'US4751924'
p1121
aS'US4781702'
p1122
aS'US4796615'
p1123
aS'US4805611'
p1124
aS'US4825859'
p1125
aS'US4834710'
p1126
aS'US4836199'
p1127
aS'US4850350'
p1128
aS'US4857062'
p1129
aS'US4938210'
p1130
aS'US4951661'
p1131
aS'US4967743'
p1132
aS'US5009391'
p1133
aS'US5025806'
p1134
aS'US5029580'
p1135
aS'US5053014'
p1136
aS'US5057093'
p1137
aS'US5065754'
p1138
aS'US5073164'
p1139
aS'US5078131'
p1140
aS'US5083561'
p1141
aS'US5088486'
p1142
aS'US5134996'
p1143
aS'US5140983'
p1144
aS'US5158569'
p1145
aS'EP0414997'
p1146
aS'CH417265'
p1147
aS'GB2029703'
p1148
asS'prior-dateDate'
p1149
(lp1150
g23
(S'\x07\xc9\x06\x17'
tRp1151
ag23
(S'\x07\xc8\x04\x18'
tRp1152
asS'IPCR11'
p1153
(lp1154
S''
aS'A61M16/04'
p1155
aS'F16K5/02'
p1156
aS'A61M25/01'
p1157
asS'CitO'
p1158
(lp1159
sS'dateDate'
p1160
g23
(S'\x07\xca\x08\x02'
tRp1161
sS'inventor-nice'
p1162
(lp1163
S'SchneiderJames'
p1164
aS'KeeKok-Hiong'
p1165
asS'equivalents'
p1166
(lp1167
S'US5333606'
p1168
aS'US5343857'
p1169
asS'CitedBy'
p1170
(lp1171
S'US2015090265'
p1172
aS'WO2014144054'
p1173
aS'US2014251328'
p1174
aS'US2014182590'
p1175
aS'US2014123979'
p1176
aS'US2014121553'
p1177
aS'US2014041656'
p1178
aS'US2014034056'
p1179
aS'US2014034054'
p1180
aS'US2013338514'
p1181
aS'US2013333697'
p1182
aS'US2013284177'
p1183
aS'US2013284173'
p1184
aS'US2013283197'
p1185
aS'US2013276788'
p1186
aS'US2013255682'
p1187
aS'US2013239967'
p1188
aS'US2013233319'
p1189
aS'US2013233314'
p1190
aS'US2013192599'
p1191
aS'US2013186401'
p1192
aS'US2013186400'
p1193
aS'US2013186397'
p1194
aS'US2013160770'
p1195
aS'US2013159912'
p1196
aS'US2013152923'
p1197
aS'US2013152923'
p1198
aS'US2013104896'
p1199
aS'US2013047983'
p1200
aS'US2013008443'
p1201
aS'US2012304997'
p1202
aS'US2012279501'
p1203
aS'US2012272960'
p1204
aS'US2012247471'
p1205
aS'US2012226444'
p1206
aS'US2012216810'
p1207
aS'US2012211008'
p1208
aS'US2012197580'
p1209
aS'US2012197578'
p1210
aS'US2012152256'
p1211
aS'JP2008534098'
p1212
aS'US2012137250'
p1213
aS'US2012137249'
p1214
aS'US2012133519'
p1215
aS'US2012071729'
p1216
aS'US2012030611'
p1217
aS'US2012029317'
p1218
aS'US2012000470'
p1219
aS'US2012000469'
p1220
aS'US2012000468'
p1221
aS'US2012000467'
p1222
aS'US2011273299'
p1223
aS'US2011273299'
p1224
aS'US2011265024'
p1225
aS'US2011259333'
p1226
aS'US2011259332'
p1227
aS'US2011249006'
p1228
aS'US2011230780'
p1229
aS'US2011209704'
p1230
aS'US2011196251'
p1231
aS'US2011192401'
p1232
aS'US2011175728'
p1233
aS'US2011154241'
p1234
aS'US2011138315'
p1235
aS'US2011138308'
p1236
aS'US2011133936'
p1237
aS'US2011132367'
p1238
aS'US2011132366'
p1239
aS'US2011132365'
p1240
aS'US2011132364'
p1241
aS'US2011132362'
p1242
aS'US2011132361'
p1243
aS'US2011128008'
p1244
aS'US2011126837'
p1245
aS'US2011126836'
p1246
aS'US2011126835'
p1247
aS'US2011126834'
p1248
aS'US2011126829'
p1249
aS'US2011126829'
p1250
aS'US2011087162'
p1251
aS'US2011041850'
p1252
aS'US2011011400'
p1253
aS'US2010288282'
p1254
aS'US2010282259'
p1255
aS'US2010249549'
p1256
aS'US2010236555'
p1257
aS'US2010218767'
p1258
aS'US2010218765'
p1259
aS'WO2011020985'
p1260
aS'US2010186744'
p1261
aS'US2010147312'
p1262
aS'US2010147310'
p1263
aS'US2010147303'
p1264
aS'US2010147296'
p1265
aS'US2010081955'
p1266
aS'US2010081119'
p1267
aS'US2010078017'
p1268
aS'US2010071697'
p1269
aS'US2010071689'
p1270
aS'US2010069761'
p1271
aS'US2010059057'
p1272
aS'US2010051029'
p1273
aS'US2010018536'
p1274
aS'US2009301491'
p1275
aS'US2009301491'
p1276
aS'US2009301490'
p1277
aS'US2009301487'
p1278
aS'US2009301486'
p1279
aS'GB2473826'
p1280
aS'WO2010052241'
p1281
aS'US2009247891'
p1282
aS'US2009247848'
p1283
aS'US2009241962'
p1284
aS'US2009241958'
p1285
aS'EA200701848'
p1286
aS'AU2007313290'
p1287
aS'US7473219'
p1288
aS'EP2081619'
p1289
aS'WO2008048535'
p1290
aS'US6457472'
p1291
aS'US6029666'
p1292
aS'US2001054423'
p1293
aS'US2005199243'
p1294
aS'US2005028818'
p1295
aS'US2008185006'
p1296
aS'US2004255952'
p1297
aS'US2001007064'
p1298
aS'US2002077586'
p1299
aS'US6729326'
p1300
aS'US7021313'
p1301
aS'US7021313'
p1302
aS'US6769430'
p1303
aS'US6805125'
p1304
aS'US2007284361'
p1305
aS'US2008145815'
p1306
aS'US2008090444'
p1307
aS'US2008078390'
p1308
aS'US2008083644'
p1309
aS'US2008125750'
p1310
aS'US2007173764'
p1311
aS'US6543451'
p1312
aS'US7152603'
p1313
aS'US2004221842'
p1314
aS'US6227200'
p1315
aS'US6129082'
p1316
aS'US2003056787'
p1317
aS'US2003106559'
p1318
aS'US2003047704'
p1319
aS'US2003196666'
p1320
aS'WO9609082'
p1321
aS'US5513628'
p1322
aS'US6588427'
p1323
aS'US2003116162'
p1324
aS'KR20080003363'
p1325
aS'WO2006103233'
p1326
aS'AU2006228122'
p1327
asS'representative'
p1328
I0
sS'Inventor-Country'
p1329
(lp1330
S'US'
p1331
asS'date'
p1332
(lp1333
S'1994-08-02'
p1334
asS'inventor'
p1335
(lp1336
S'SCHNEIDER JAMES'
p1337
aS'KEE KOK-HIONG'
p1338
asS'kind'
p1339
S'A'
sS'priority-active-indicator'
p1340
I0
sS'applicant-nice'
p1341
(lp1342
S'SherwoodMedicalCo'
p1343
asS'IPCR1'
p1344
(lp1345
S'A'
asS'country'
p1346
(lp1347
S'US'
p1348
asS'IPCR3'
p1349
(lp1350
S'A61'
p1351
asS'applicant'
p1352
(lp1353
S'SHERWOOD MEDICAL CO'
p1354
asS'IPCR4'
p1355
(lp1356
S'A61M'
p1357
asS'IPCR7'
p1358
(lp1359
S'A61M1'
p1360
aS'A61M16'
p1361
aS'F16K5'
p1362
aS'A61M25'
p1363
asS'title'
p1364
S'Method for using a respirator accessory access port and adaptor therefore'
p1365
sS'application-ref'
p1366
F1
sa(dp1367
S'classification'
p1368
(lp1369
S'A61M1/00'
p1370
asS'CPC'
p1371
(lp1372
S''
asS'Citations'
p1373
I0
sS'references'
p1374
I0
sS'year'
p1375
(lp1376
S'2007'
p1377
asS'label'
p1378
S'TWM313519'
p1379
sS'Applicant-Country'
p1380
(lp1381
S'TW'
p1382
asS'prior-Date'
p1383
(lp1384
S'2006-11-24'
p1385
asS'CitP'
p1386
S''
sS'prior-dateDate'
p1387
(lp1388
g23
(S'\x07\xd6\x0b\x18'
tRp1389
asS'IPCR11'
p1390
(lp1391
S''
asS'CitO'
p1392
S''
sS'dateDate'
p1393
g23
(S'\x07\xd7\x06\x0b'
tRp1394
sS'inventor-nice'
p1395
(lp1396
S'LeeYuan-Yung'
p1397
asS'equivalents'
p1398
(lp1399
S'TWM313519U'
p1400
asS'CitedBy'
p1401
(lp1402
sS'representative'
p1403
I0
sS'Inventor-Country'
p1404
(lp1405
S'TW'
p1406
asS'date'
p1407
(lp1408
S'2007-06-11'
p1409
asS'inventor'
p1410
(lp1411
S'LEE YUAN-YUNG'
p1412
asS'kind'
p1413
S'U'
sS'priority-active-indicator'
p1414
I0
sS'applicant-nice'
p1415
(lp1416
S'PacificHospitalSupplyCoLtd'
p1417
asS'IPCR1'
p1418
(lp1419
S'A'
asS'country'
p1420
(lp1421
S'TW'
p1422
asS'IPCR3'
p1423
(lp1424
S'A61'
p1425
asS'applicant'
p1426
(lp1427
S'PACIFIC HOSPITAL SUPPLY CO LTD'
p1428
asS'IPCR4'
p1429
(lp1430
S'A61M'
p1431
asS'IPCR7'
p1432
(lp1433
S'A61M1'
p1434
asS'title'
p1435
S'Respirator tube adapter of suction machine'
p1436
sS'application-ref'
p1437
F1
sa(dp1438
S'classification'
p1439
(lp1440
S'A61M1/00'
p1441
aS'A61M16/04'
p1442
aS'A61M16/20'
p1443
asS'CPC'
p1444
(lp1445
S'A61M1/0031'
p1446
aS'A61M16/0463'
p1447
aS'A61M16/202'
p1448
aS'A61M16/0465'
p1449
asS'Citations'
p1450
I0
sS'references'
p1451
I5
sS'year'
p1452
(lp1453
S'2002'
p1454
asS'label'
p1455
S'WO02072184'
p1456
sS'Applicant-Country'
p1457
(lp1458
S'SE'
p1459
asS'prior-Date'
p1460
(lp1461
S'2001-03-14'
p1462
asS'CitP'
p1463
(lp1464
S'SE512807'
p1465
aS'SE182929'
p1466
aS'US4805611'
p1467
aS'US5611336'
p1468
aS'GB2021421'
p1469
asS'prior-dateDate'
p1470
(lp1471
g23
(S'\x07\xd1\x03\x0e'
tRp1472
asS'IPCR11'
p1473
(lp1474
S''
aS'A61M16/04'
p1475
aS'A61M16/20'
p1476
asS'CitO'
p1477
(lp1478
sS'dateDate'
p1479
g23
(S'\x07\xd2\t\x13'
tRp1480
sS'inventor-nice'
p1481
(lp1482
S'FlodinBjoern'
p1483
asS'equivalents'
p1484
(lp1485
S'SE522948'
p1486
aS'US2004107967'
p1487
aS'WO02072184'
p1488
asS'CitedBy'
p1489
(lp1490
sS'representative'
p1491
I0
sS'Inventor-Country'
p1492
(lp1493
S'SE'
p1494
asS'date'
p1495
(lp1496
S'2002-09-19'
p1497
asS'inventor'
p1498
(lp1499
S'FLODIN BJOERN'
p1500
asS'kind'
p1501
S'A1'
p1502
sS'priority-active-indicator'
p1503
I0
sS'applicant-nice'
p1504
(lp1505
S'FlodinBjoern'
p1506
asS'IPCR1'
p1507
(lp1508
S'A'
asS'country'
p1509
(lp1510
S'WO'
p1511
asS'IPCR3'
p1512
(lp1513
S'A61'
p1514
asS'applicant'
p1515
(lp1516
S'FLODIN BJOERN'
p1517
asS'IPCR4'
p1518
(lp1519
S'A61M'
p1520
asS'IPCR7'
p1521
(lp1522
S'A61M16'
p1523
asS'title'
p1524
S'ACCESSOIRE DE RESPIRATEUR'
p1525
sS'application-ref'
p1526
F1
sa(dp1527
S'classification'
p1528
(lp1529
S'A61M16/00'
p1530
aS'A61M16/12'
p1531
aS'A61M16/20'
p1532
aS'A61M1/00'
p1533
aS'A61M16/06'
p1534
aS'A61M16/08'
p1535
asS'CPC'
p1536
(lp1537
S'A61M16/0075'
p1538
aS'A61M16/12'
p1539
aS'A61M16/208'
p1540
aS'A61M16/06'
p1541
aS'A61M16/0816'
p1542
aS'A61M2210/0625'
p1543
aS'A61M1/0072'
p1544
asS'Citations'
p1545
I0
sS'references'
p1546
I9
sS'year'
p1547
(lp1548
S'2005'
p1549
asS'label'
p1550
S'GB2407778'
p1551
sS'Applicant-Country'
p1552
(lp1553
S'GB'
p1554
asS'prior-Date'
p1555
(lp1556
S'2003-11-10'
p1557
asS'CitP'
p1558
(lp1559
S'GB191424624'
p1560
aS'GB1550720'
p1561
aS'BE1006807'
p1562
aS'DE2402192'
p1563
aS'US4870962'
p1564
aS'US4898167'
p1565
aS'US4934360'
p1566
aS'US5345929'
p1567
aS'US2003178025'
p1568
asS'prior-dateDate'
p1569
(lp1570
g23
(S'\x07\xd3\x0b\n'
tRp1571
asS'IPCR11'
p1572
(lp1573
S''
aS'A61M16/06'
p1574
aS'A61M16/08'
p1575
asS'CitO'
p1576
(lp1577
sS'dateDate'
p1578
g23
(S'\x07\xd5\x05\x0b'
tRp1579
sS'inventor-nice'
p1580
(lp1581
S'ListerMartin'
p1582
asS'equivalents'
p1583
(lp1584
S'GB2407778'
p1585
asS'CitedBy'
p1586
(lp1587
sS'representative'
p1588
I0
sS'Inventor-Country'
p1589
(lp1590
S'GB'
p1591
asS'date'
p1592
(lp1593
S'2005-05-11'
p1594
asS'inventor'
p1595
(lp1596
S'LISTER MARTIN'
p1597
asS'kind'
p1598
S'A'
sS'priority-active-indicator'
p1599
I0
sS'applicant-nice'
p1600
(lp1601
S'ListerMartin'
p1602
asS'IPCR1'
p1603
(lp1604
S'A'
asS'country'
p1605
(lp1606
S'GB'
p1607
asS'IPCR3'
p1608
(lp1609
S'A61'
p1610
asS'applicant'
p1611
(lp1612
S'LISTER MARTIN'
p1613
asS'IPCR4'
p1614
(lp1615
S'A61M'
p1616
asS'IPCR7'
p1617
(lp1618
S'A61M16'
p1619
asS'title'
p1620
S'Manual respirator with bellows'
p1621
sS'application-ref'
p1622
F1
sa(dp1623
S'classification'
p1624
(lp1625
S'A61M1/00'
p1626
aS'A61B10/00'
p1627
aS'A61M3/00'
p1628
aS'A61M5/00'
p1629
asS'CPC'
p1630
(lp1631
S''
asS'Citations'
p1632
I0
sS'references'
p1633
I0
sS'year'
p1634
(lp1635
S'2007'
p1636
asS'label'
p1637
S'CN2897273'
p1638
sS'Applicant-Country'
p1639
(lp1640
S'CN'
p1641
asS'prior-Date'
p1642
(lp1643
S'2006-05-12'
p1644
asS'CitP'
p1645
S''
sS'prior-dateDate'
p1646
(lp1647
g23
(S'\x07\xd6\x05\x0c'
tRp1648
asS'IPCR11'
p1649
(lp1650
S''
asS'CitO'
p1651
S''
sS'dateDate'
p1652
g23
(S'\x07\xd7\x05\t'
tRp1653
sS'inventor-nice'
p1654
(lp1655
S'WangWeiminWang'
p1656
asS'equivalents'
p1657
(lp1658
S'CN2897273Y'
p1659
asS'CitedBy'
p1660
(lp1661
sS'representative'
p1662
I0
sS'Inventor-Country'
p1663
(lp1664
S'CN'
p1665
asS'date'
p1666
(lp1667
S'2007-05-09'
p1668
asS'inventor'
p1669
(lp1670
S'WANG WEIMIN WANG'
p1671
asS'kind'
p1672
S'Y'
sS'priority-active-indicator'
p1673
I0
sS'applicant-nice'
p1674
(lp1675
S'CunsongMedicalProductsCoLt'
p1676
asS'IPCR1'
p1677
(lp1678
S'A'
asS'country'
p1679
(lp1680
S'CN'
p1681
asS'IPCR3'
p1682
(lp1683
S'A61'
p1684
asS'applicant'
p1685
(lp1686
S'CUNSONG MEDICAL PRODUCTS CO LT'
p1687
asS'IPCR4'
p1688
(lp1689
S'A61M'
p1690
asS'IPCR7'
p1691
(lp1692
S'A61M1'
p1693
aS'A61B10'
p1694
aS'A61M3'
p1695
aS'A61M5'
p1696
asS'title'
p1697
S'Multifunctional body fluid respirator'
p1698
sS'application-ref'
p1699
F1
sa(dp1700
S'classification'
p1701
(lp1702
S'A61M1/00'
p1703
asS'CPC'
p1704
(lp1705
S''
asS'Citations'
p1706
I0
sS'references'
p1707
I0
sS'year'
p1708
(lp1709
S'2007'
p1710
asS'label'
p1711
S'CN2897272'
p1712
sS'Applicant-Country'
p1713
(lp1714
S'CN'
p1715
asS'prior-Date'
p1716
(lp1717
S'2006-04-25'
p1718
asS'CitP'
p1719
S''
sS'prior-dateDate'
p1720
(lp1721
g23
(S'\x07\xd6\x04\x19'
tRp1722
asS'IPCR11'
p1723
(lp1724
S''
asS'CitO'
p1725
S''
sS'dateDate'
p1726
g23
(S'\x07\xd7\x05\t'
tRp1727
sS'inventor-nice'
p1728
(lp1729
S'LiuYanLi'
p1730
asS'equivalents'
p1731
(lp1732
S'CN2897272Y'
p1733
asS'CitedBy'
p1734
(lp1735
sS'representative'
p1736
I0
sS'Inventor-Country'
p1737
(lp1738
S'CN'
p1739
asS'date'
p1740
(lp1741
S'2007-05-09'
p1742
asS'inventor'
p1743
(lp1744
S'LIU YAN LI'
p1745
asS'kind'
p1746
S'Y'
sS'priority-active-indicator'
p1747
I0
sS'applicant-nice'
p1748
(lp1749
S'LiuYan'
p1750
asS'IPCR1'
p1751
(lp1752
S'A'
asS'country'
p1753
(lp1754
S'CN'
p1755
asS'IPCR3'
p1756
(lp1757
S'A61'
p1758
asS'applicant'
p1759
(lp1760
S'LIU YAN'
p1761
asS'IPCR4'
p1762
(lp1763
S'A61M'
p1764
asS'IPCR7'
p1765
(lp1766
S'A61M1'
p1767
asS'title'
p1768
S'Controllable phlegm respirator'
p1769
sS'application-ref'
p1770
F1
sa(dp1771
S'classification'
p1772
(lp1773
S'A61H31/00'
p1774
aS'A61M1/14'
p1775
asS'CPC'
p1776
(lp1777
S''
asS'Citations'
p1778
I0
sS'references'
p1779
I0
sS'year'
p1780
(lp1781
S'1994'
p1782
asS'label'
p1783
S'CN2183777'
p1784
sS'Applicant-Country'
p1785
(lp1786
S'CN'
p1787
asS'prior-Date'
p1788
(lp1789
S'1994-01-21'
p1790
asS'CitP'
p1791
S''
sS'prior-dateDate'
p1792
(lp1793
g23
(S'\x07\xca\x01\x15'
tRp1794
asS'IPCR11'
p1795
(lp1796
S''
aS'A61M1/14'
p1797
asS'CitO'
p1798
S''
sS'dateDate'
p1799
g23
(S'\x07\xca\x0b\x1e'
tRp1800
sS'inventor-nice'
p1801
(lp1802
S'ChengliXu'
p1803
asS'equivalents'
p1804
(lp1805
S'CN2183777Y'
p1806
asS'CitedBy'
p1807
(lp1808
sS'representative'
p1809
I0
sS'Inventor-Country'
p1810
(lp1811
S'CN'
p1812
asS'date'
p1813
(lp1814
S'1994-11-30'
p1815
asS'inventor'
p1816
(lp1817
S'CHENGLI XU'
p1818
asS'kind'
p1819
S'Y'
sS'priority-active-indicator'
p1820
I0
sS'applicant-nice'
p1821
(lp1822
S'XuChengli'
p1823
asS'IPCR1'
p1824
(lp1825
S'A'
asS'country'
p1826
(lp1827
S'CN'
p1828
asS'IPCR3'
p1829
(lp1830
S'A61'
p1831
asS'applicant'
p1832
(lp1833
S'XU CHENGLI'
p1834
asS'IPCR4'
p1835
(lp1836
S'A61H'
p1837
aS'A61M'
p1838
asS'IPCR7'
p1839
(lp1840
S'A61H31'
p1841
aS'A61M1'
p1842
asS'title'
p1843
S'Artificial respirator'
p1844
sS'application-ref'
p1845
F1
sa(dp1846
S'classification'
p1847
(lp1848
S'A61M1/18'
p1849
aS'A61M16/00'
p1850
aS'B01D69/08'
p1851
aS'B01D71/38'
p1852
asS'CPC'
p1853
(lp1854
S''
asS'Citations'
p1855
I3
sS'references'
p1856
I0
sS'year'
p1857
(lp1858
S'2002'
p1859
asS'label'
p1860
S'CN1377726'
p1861
sS'Applicant-Country'
p1862
(lp1863
S'CN'
p1864
asS'prior-Date'
p1865
(lp1866
S'2002-01-11'
p1867
asS'CitP'
p1868
S''
sS'prior-dateDate'
p1869
(lp1870
g23
(S'\x07\xd2\x01\x0b'
tRp1871
asS'IPCR11'
p1872
(lp1873
S'A61M1/18'
p1874
aS''
aS'B01D69/08'
p1875
aS'B01D71/38'
p1876
asS'CitO'
p1877
S''
sS'dateDate'
p1878
g23
(S'\x07\xd2\x0b\x06'
tRp1879
sS'inventor-nice'
p1880
(lp1881
S'CuiFuzhai'
p1882
aS'WangXiaohong'
p1883
aS'FengQingling'
p1884
asS'equivalents'
p1885
(lp1886
S'CN1377726'
p1887
asS'CitedBy'
p1888
(lp1889
S'CN102604320'
p1890
aS'CN102179217'
p1891
aS'CN102162154'
p1892
asS'representative'
p1893
I0
sS'Inventor-Country'
p1894
(lp1895
S'CN'
p1896
asS'date'
p1897
(lp1898
S'2002-11-06'
p1899
asS'inventor'
p1900
(lp1901
S'CUI FUZHAI'
p1902
aS'WANG XIAOHONG'
p1903
aS'FENG QINGLING'
p1904
asS'kind'
p1905
S'A'
sS'priority-active-indicator'
p1906
I0
sS'applicant-nice'
p1907
(lp1908
S'UnivTsinghua'
p1909
asS'IPCR1'
p1910
(lp1911
S'B'
asS'country'
p1912
(lp1913
S'CN'
p1914
asS'IPCR3'
p1915
(lp1916
S'B01'
p1917
asS'applicant'
p1918
(lp1919
S'UNIV TSINGHUA'
p1920
asS'IPCR4'
p1921
(lp1922
S'B01D'
p1923
asS'IPCR7'
p1924
(lp1925
S'A61M1'
p1926
aS'A61M16'
p1927
aS'B01D69'
p1928
aS'B01D71'
p1929
asS'title'
p1930
S'Process for preparing phenolic resin hollow fibre film for auxiliary respirator'
p1931
sS'application-ref'
p1932
F1
sa(dp1933
S'classification'
p1934
(lp1935
S'A61M1/00'
p1936
asS'CPC'
p1937
(lp1938
S'A61M1/0023'
p1939
aS'A61M2205/8206'
p1940
asS'Citations'
p1941
I0
sS'references'
p1942
I0
sS'year'
p1943
(lp1944
S'1978'
p1945
asS'label'
p1946
S'AU2363477'
p1947
sS'Applicant-Country'
p1948
S''
sS'prior-Date'
p1949
(lp1950
S'1977-03-25'
p1951
asS'CitP'
p1952
S''
sS'prior-dateDate'
p1953
(lp1954
g23
(S'\x07\xb9\x03\x19'
tRp1955
asS'IPCR11'
p1956
(lp1957
S''
asS'CitO'
p1958
S''
sS'dateDate'
p1959
g23
(S'\x07\xba\t\x1c'
tRp1960
sS'inventor-nice'
p1961
(lp1962
S'HawkerMichaelJohn'
p1963
aS'MillerRobert'
p1964
asS'equivalents'
p1965
(lp1966
S'AU506918B'
p1967
aS'GB1506082'
p1968
aS'AU2363477'
p1969
asS'CitedBy'
p1970
(lp1971
sS'representative'
p1972
I0
sS'Inventor-Country'
p1973
S''
sS'date'
p1974
(lp1975
S'1978-09-28'
p1976
asS'inventor'
p1977
(lp1978
S'HAWKER MICHAEL JOHN'
p1979
aS'MILLER ROBERT'
p1980
asS'kind'
p1981
S'A'
sS'priority-active-indicator'
p1982
I0
sS'applicant-nice'
p1983
(lp1984
S'CommwIndGases'
p1985
asS'IPCR1'
p1986
(lp1987
S'A'
asS'country'
p1988
(lp1989
S'AU'
p1990
asS'IPCR3'
p1991
(lp1992
S'A61'
p1993
asS'applicant'
p1994
(lp1995
S'COMMW IND GASES'
p1996
asS'IPCR4'
p1997
(lp1998
S'A61M'
p1999
asS'IPCR7'
p2000
(lp2001
S'A61M1'
p2002
asS'title'
p2003
S'PORTABLE RESPIRATOR'
p2004
sS'application-ref'
p2005
F1
sa.