(dp1
S'ficBrevets'
p2
S'Respirator'
p3
sS'YetGathered'
p4
(lp5
VCN204671687
p6
aVCN204501985
p7
aVCN204446856
p8
aVCN204092769
p9
aVCN203898874
p10
aVCN203263989
p11
aVCN203123227
p12
aVCN202859823
p13
aVCN202538100
p14
aVCN101756782
p15
aVCN201290920
p16
aVUS3946736
p17
aVUS2004107967
p18
aVUS3323521
p19
aVUS5333606
p20
aVTWM313519
p21
aVWO02072184
p22
aVGB2407778
p23
aVCN2897273
p24
aVCN2897272
p25
aVCN2183777
p26
aVCN1377726
p27
aVAU2363477
p28
asS'requete'
p29
S'TI=Respirator AND IPC= A61M1'
p30
s.