(dp1
Vclassification
p2
(lp3
VA61H31/02
p4
aVA61M1/00
p5
asVCPC
p6
V
sS'Citations'
p7
I0
sVreferences
p8
I0
sVyear
p9
S'2010'
p10
sS'label'
p11
VCN101756782
p12
sVfamily lenght
p13
I1
sVpriority-active-indicator
p14
I1
sS'prior-Date'
p15
V2009-09-25
p16
sVCitP
p17
S''
sS'prior-dateDate'
p18
cdatetime
date
p19
(S'\x07\xd9\t\x19'
tRp20
sS'IPCR11'
p21
g4
sVCitO
p22
S''
sVdateDate
p23
g19
(S'\x07\xda\x06\x1e'
tRp24
sVinventor-nice
p25
S'FuxuYang'
p26
sS'equivalents'
p27
VCN101756782
p28
sS'CitedBy'
p29
S''
sVrepresentative
p30
I0
sS'Applicant-Country'
p31
S''
sVdate
p32
S'2010-06-30'
p33
sVinventor
p34
VFUXU YANG
p35
sVkind
p36
VA
sS'Inventor-Country'
p37
S''
sVapplicant-nice
p38
S'FuxuYang'
p39
sS'IPCR1'
p40
VA
sVcountry
p41
VCN
p42
sS'IPCR3'
p43
VA61
p44
sVapplicant
p45
VFUXU YANG
p46
sS'IPCR4'
p47
(lp48
VA61H
p49
aVA61M
p50
asS'IPCR7'
p51
(lp52
VA61H31
p53
aVA61M1
p54
asS'prior'
p55
g12
sVtitle
p56
VManual respirator
p57
sVapplication-ref
p58
F1
s.(dp1
Vclassification
p2
(lp3
VA61B17/24
p4
aVA61B17/50
p5
asVCPC
p6
(lp7
VA61B17/24
p8
aVA61B17/50
p9
asS'Citations'
p10
I0
sVreferences
p11
I5
sVyear
p12
S'1976'
p13
sS'label'
p14
VUS3946736
p15
sVfamily lenght
p16
I1
sVpriority-active-indicator
p17
I1
sS'prior-Date'
p18
V1974-10-18
p19
sVCitP
p20
(lp21
VUS2756742
p22
aVUS3050062
p23
aVUS3543751
p24
aVUS3730179
p25
aVUS3809079
p26
asS'prior-dateDate'
p27
cdatetime
date
p28
(S'\x07\xb6\n\x12'
tRp29
sS'IPCR11'
p30
(lp31
g4
ag5
asVCitO
p32
S''
sVdateDate
p33
g28
(S'\x07\xb8\x03\x1e'
tRp34
sVinventor-nice
p35
S'NewardTheodoreC'
p36
sS'equivalents'
p37
VUS3946736
p38
sS'CitedBy'
p39
S''
sVrepresentative
p40
I1
sS'Applicant-Country'
p41
S''
sVdate
p42
S'1976-03-30'
p43
sVinventor
p44
VNEWARD THEODORE C
p45
sVkind
p46
VA
sS'Inventor-Country'
p47
S''
sVapplicant-nice
p48
S'NewardTheodoreC'
p49
sS'IPCR1'
p50
VA
sVcountry
p51
VUS
p52
sS'IPCR3'
p53
VA61
p54
sVapplicant
p55
VNEWARD THEODORE C
p56
sS'IPCR4'
p57
VA61B
p58
sS'IPCR7'
p59
VA61B17
p60
sS'prior'
p61
g15
sVtitle
p62
VRESPIRATOR ASSIST DEVICE
p63
sVapplication-ref
p64
F1
s.(dp1
Vclassification
p2
(lp3
VA61M1/00
p4
aVA61M16/04
p5
aVA61M16/20
p6
asVCPC
p7
(lp8
VA61M1/0031
p9
aVA61M16/0463
p10
aVA61M16/202
p11
aVA61M16/0465
p12
asS'Citations'
p13
I0
sVreferences
p14
I26
sVyear
p15
S'2004'
p16
sS'label'
p17
VUS2004107967
p18
sVfamily lenght
p19
I6
sVpriority-active-indicator
p20
I1
sS'prior-Date'
p21
(lp22
V2001-03-14
p23
aV2002-03-14
p24
asVCitP
p25
(lp26
VUS2967525
p27
aVUS4981466
p28
aVUS2972345
p29
aVUS3234932
p30
aVUS4805611
p31
aVUS3719197
p32
aVUS5400778
p33
aVUS6550475
p34
aVUS5315992
p35
aVUS5419314
p36
aVUS6568388
p37
aVUS4456008
p38
aVUS4751924
p39
aVUS5322057
p40
aVUS3682166
p41
aVUS5661336
p42
aVUS6102042
p43
aVUS4351328
p44
aVUS4867153
p45
aVUS5345928
p46
aVUS5676133
p47
aVUS6298848
p48
aVUS3991762
p49
aVUS4233984
p50
aVUS5269035
p51
aVUS5582167
p52
asS'prior-dateDate'
p53
(lp54
cdatetime
date
p55
(S'\x07\xd1\x03\x0e'
tRp56
ag55
(S'\x07\xd2\x03\x0e'
tRp57
asS'IPCR11'
p58
(lp59
g5
ag6
asVCitO
p60
S''
sVdateDate
p61
g55
(S'\x07\xd4\x06\n'
tRp62
sVinventor-nice
p63
VFlodinBjorn
p64
sS'equivalents'
p65
(lp66
VUS2004107967
p67
aVSE522948
p68
aVWO02072184
p69
asS'CitedBy'
p70
S''
sVrepresentative
p71
I0
sS'Applicant-Country'
p72
S''
sVdate
p73
S'2004-06-10'
p74
sVinventor
p75
VFLODIN BJORN
p76
sVkind
p77
VA1
p78
sS'Inventor-Country'
p79
VSE
p80
sVapplicant-nice
p81
S'Empty'
p82
sS'IPCR1'
p83
VA
sVcountry
p84
VUS
p85
sS'IPCR3'
p86
VA61
p87
sVapplicant
p88
Vempty
p89
sS'IPCR4'
p90
VA61M
p91
sS'IPCR7'
p92
VA61M16
p93
sS'prior'
p94
VSE0100879
p95
sVtitle
p96
VDevice for a respirator
p97
sVapplication-ref
p98
F1
s.(dp1
Vclassification
p2
(lp3
VA61M16/00
p4
aVA61M1/00
p5
aVA61M16/04
p6
aVA62B19/00
p7
aVA61M16/20
p8
asVCPC
p9
(lp10
VA61M1/0031
p11
aVA61M16/0463
p12
aVA61M16/202
p13
aVA61M16/0465
p14
asS'Citations'
p15
I0
sVreferences
p16
I34
sVyear
p17
S'2008'
p18
sS'label'
p19
VUS7464711
p20
sVfamily lenght
p21
I6
sVpriority-active-indicator
p22
I1
sS'prior-Date'
p23
(lp24
V2001-03-14
p25
aV2002-03-14
p26
asVCitP
p27
(lp28
VUS4805611
p29
aVUS5611336
p30
aVDE3907082
p31
aVGB2021421
p32
aVSE182929
p33
aVSE0000635
p34
aVSE512807
p35
aVWO9315782
p36
aVWO0013730
p37
aVWO0162313
p38
aVUS2967525
p39
aVUS2972345
p40
aVUS3234932
p41
aVUS3682166
p42
aVUS3719197
p43
aVUS3991762
p44
aVUS4233984
p45
aVUS4351328
p46
aVUS4456008
p47
aVUS4751924
p48
aVUS4867153
p49
aVUS4981466
p50
aVUS5269035
p51
aVUS5315992
p52
aVUS5322057
p53
aVUS5345928
p54
aVUS5400778
p55
aVUS5419314
p56
aVUS5582167
p57
aVUS5676133
p58
aVUS6102042
p59
aVUS6298848
p60
aVUS6550475
p61
aVUS6568388
p62
asS'prior-dateDate'
p63
(lp64
cdatetime
date
p65
(S'\x07\xd1\x03\x0e'
tRp66
ag65
(S'\x07\xd2\x03\x0e'
tRp67
asS'IPCR11'
p68
g8
sVCitO
p69
S''
sVdateDate
p70
g65
(S'\x07\xd8\x0c\x10'
tRp71
sVinventor-nice
p72
VFlodinBjoern
p73
sS'equivalents'
p74
(lp75
VUS2004107967
p76
aVSE522948
p77
aVWO02072184
p78
asS'CitedBy'
p79
S''
sVrepresentative
p80
I0
sS'Applicant-Country'
p81
S''
sVdate
p82
S'2008-12-16'
p83
sVinventor
p84
VFLODIN BJOERN
p85
sVkind
p86
VB2
p87
sS'Inventor-Country'
p88
VSE
p89
sVapplicant-nice
p90
S'Empty'
p91
sS'IPCR1'
p92
VA
sVcountry
p93
VUS
p94
sS'IPCR3'
p95
VA61
p96
sVapplicant
p97
Vempty
p98
sS'IPCR4'
p99
VA61M
p100
sS'IPCR7'
p101
VA61M16
p102
sS'prior'
p103
VSE0100879
p104
sVtitle
p105
VDevice for a respirator
p106
sVapplication-ref
p107
F1
s.(dp1
Vclassification
p2
(lp3
VA61M1/00
p4
aVA61M16/04
p5
aVA61M16/20
p6
asVCPC
p7
(lp8
VA61M1/0031
p9
aVA61M16/0463
p10
aVA61M16/202
p11
aVA61M16/0465
p12
asS'Citations'
p13
I0
sVreferences
p14
I0
sVyear
p15
S'2002'
p16
sS'label'
p17
VSE0100879
p18
sVfamily lenght
p19
I6
sVpriority-active-indicator
p20
I1
sS'prior-Date'
p21
V2001-03-14
p22
sVCitP
p23
S''
sS'prior-dateDate'
p24
cdatetime
date
p25
(S'\x07\xd1\x03\x0e'
tRp26
sS'IPCR11'
p27
(lp28
g5
ag6
asVCitO
p29
S''
sVdateDate
p30
g25
(S'\x07\xd2\t\x0f'
tRp31
sVinventor-nice
p32
VFlodinBjoern
p33
sS'equivalents'
p34
S'empty'
p35
sS'CitedBy'
p36
S''
sVrepresentative
p37
I0
sS'Applicant-Country'
p38
VSE
p39
sVdate
p40
S'2002-09-15'
p41
sVinventor
p42
VFLODIN BJOERN
p43
sVkind
p44
VL
sS'Inventor-Country'
p45
VSE
p46
sVapplicant-nice
p47
VFlodinBjoern
p48
sS'IPCR1'
p49
VA
sVcountry
p50
VSE
p51
sS'IPCR3'
p52
VA61
p53
sVapplicant
p54
VFLODIN BJOERN
p55
sS'IPCR4'
p56
VA61M
p57
sS'IPCR7'
p58
VA61M16
p59
sS'prior'
p60
g18
sVtitle
p61
VAnordning fr en respirator
p62
sVapplication-ref
p63
F1
s.(dp1
Vclassification
p2
(lp3
VA61M1/00
p4
aVA61M16/04
p5
aVA61M16/20
p6
asVCPC
p7
(lp8
VA61M1/0031
p9
aVA61M16/0463
p10
aVA61M16/202
p11
aVA61M16/0465
p12
asS'Citations'
p13
I0
sVreferences
p14
I0
sVyear
p15
S'2004'
p16
sS'label'
p17
VSE522948
p18
sVfamily lenght
p19
I6
sVpriority-active-indicator
p20
I1
sS'prior-Date'
p21
V2001-03-14
p22
sVCitP
p23
S''
sS'prior-dateDate'
p24
cdatetime
date
p25
(S'\x07\xd1\x03\x0e'
tRp26
sS'IPCR11'
p27
(lp28
g5
ag6
asVCitO
p29
S''
sVdateDate
p30
g25
(S'\x07\xd4\x03\x10'
tRp31
sVinventor-nice
p32
VFlodinBjoern
p33
sS'equivalents'
p34
(lp35
VSE522948
p36
aVUS2004107967
p37
aVWO02072184
p38
asS'CitedBy'
p39
S''
sVrepresentative
p40
I0
sS'Applicant-Country'
p41
VSE
p42
sVdate
p43
S'2004-03-16'
p44
sVinventor
p45
VFLODIN BJOERN
p46
sVkind
p47
VC2
p48
sS'Inventor-Country'
p49
VSE
p50
sVapplicant-nice
p51
VFlodinBjoern
p52
sS'IPCR1'
p53
VA
sVcountry
p54
VSE
p55
sS'IPCR3'
p56
VA61
p57
sVapplicant
p58
VFLODIN BJOERN
p59
sS'IPCR4'
p60
VA61M
p61
sS'IPCR7'
p62
VA61M16
p63
sS'prior'
p64
VSE0100879
p65
sVtitle
p66
VAnordning fr en respirator
p67
sVapplication-ref
p68
F1
s.(dp1
Vclassification
p2
(lp3
VA61M1/00
p4
aVA61M16/04
p5
aVA61M16/20
p6
asVCPC
p7
(lp8
VA61M1/0031
p9
aVA61M16/0463
p10
aVA61M16/202
p11
aVA61M16/0465
p12
asS'Citations'
p13
I0
sVreferences
p14
I5
sVyear
p15
S'2002'
p16
sS'label'
p17
VWO02072184
p18
sVfamily lenght
p19
I6
sVpriority-active-indicator
p20
I1
sS'prior-Date'
p21
V2001-03-14
p22
sVCitP
p23
(lp24
VSE512807
p25
aVSE182929
p26
aVUS4805611
p27
aVUS5611336
p28
aVGB2021421
p29
asS'prior-dateDate'
p30
cdatetime
date
p31
(S'\x07\xd1\x03\x0e'
tRp32
sS'IPCR11'
p33
(lp34
g5
ag6
asVCitO
p35
S''
sVdateDate
p36
g31
(S'\x07\xd2\t\x13'
tRp37
sVinventor-nice
p38
VFlodinBjoern
p39
sS'equivalents'
p40
(lp41
VSE522948
p42
aVUS2004107967
p43
aVWO02072184
p44
asS'CitedBy'
p45
S''
sVrepresentative
p46
I1
sS'Applicant-Country'
p47
VSE
p48
sVdate
p49
S'2002-09-19'
p50
sVinventor
p51
VFLODIN BJOERN
p52
sVkind
p53
VA1
p54
sS'Inventor-Country'
p55
VSE
p56
sVapplicant-nice
p57
VFlodinBjoern
p58
sS'IPCR1'
p59
VA
sVcountry
p60
VWO
p61
sS'IPCR3'
p62
VA61
p63
sVapplicant
p64
VFLODIN BJOERN
p65
sS'IPCR4'
p66
VA61M
p67
sS'IPCR7'
p68
VA61M16
p69
sS'prior'
p70
VSE0100879
p71
sVtitle
p72
VACCESSOIRE DE RESPIRATEUR
p73
sVapplication-ref
p74
F1
s.(dp1
Vclassification
p2
(lp3
VA61M1/00
p4
aVA61M16/00
p5
asVCPC
p6
(lp7
VA61M1/0066
p8
aVA61M16/0057
p9
asS'Citations'
p10
I0
sVreferences
p11
I7
sVyear
p12
S'1967'
p13
sS'label'
p14
VUS3323521
p15
sVfamily lenght
p16
I1
sVpriority-active-indicator
p17
I1
sS'prior-Date'
p18
V1962-10-31
p19
sVCitP
p20
(lp21
VUS2383181
p22
aVUS2737177
p23
aVUS3105488
p24
aVUS3106204
p25
aVUS3115138
p26
aVUS3185147
p27
aVFR1237217
p28
asS'prior-dateDate'
p29
cdatetime
date
p30
(S'\x07\xaa\n\x1f'
tRp31
sS'IPCR11'
p32
S''
sVCitO
p33
S''
sVdateDate
p34
g30
(S'\x07\xaf\x06\x06'
tRp35
sVinventor-nice
p36
S'YehudaIsk'
p37
sS'equivalents'
p38
VUS3323521
p39
sS'CitedBy'
p40
S''
sVrepresentative
p41
I1
sS'Applicant-Country'
p42
S''
sVdate
p43
S'1967-06-06'
p44
sVinventor
p45
VYEHUDA ISK
p46
sVkind
p47
VA
sS'Inventor-Country'
p48
S''
sVapplicant-nice
p49
S'Empty'
p50
sS'IPCR1'
p51
VA
sVcountry
p52
VUS
p53
sS'IPCR3'
p54
VA61
p55
sVapplicant
p56
Vempty
p57
sS'IPCR4'
p58
VA61M
p59
sS'IPCR7'
p60
(lp61
VA61M1
p62
aVA61M16
p63
asS'prior'
p64
g15
sVtitle
p65
VRespirator
p66
sVapplication-ref
p67
F1
s.(dp1
Vclassification
p2
(lp3
VA61M1/00
p4
aVA61M16/04
p5
aVF16K5/02
p6
aVA61M25/01
p7
asVCPC
p8
(lp9
VA61M1/0064
p10
aVA61M16/0463
p11
aVF16K5/0207
p12
aVA61M1/0043
p13
aVA61M25/0111
p14
aVY10S128/912
p15
asS'Citations'
p16
I0
sVreferences
p17
I42
sVyear
p18
S'1994'
p19
sS'label'
p20
VUS5333606
p21
sVfamily lenght
p22
I31
sVpriority-active-indicator
p23
I1
sS'prior-Date'
p24
(lp25
V1993-06-23
p26
aV1992-04-24
p27
asVCitP
p28
(lp29
VUS1588336
p30
aVUS1952451
p31
aVUS3292442
p32
aVUS3825001
p33
aVUS3991762
p34
aVUS4240417
p35
aVUS4346702
p36
aVUS4351328
p37
aVUS4426062
p38
aVUS4475548
p39
aVUS4510933
p40
aVUS4621633
p41
aVUS4691702
p42
aVUS4696296
p43
aVUS4751924
p44
aVUS4781702
p45
aVUS4796615
p46
aVUS4805611
p47
aVUS4825859
p48
aVUS4834710
p49
aVUS4836199
p50
aVUS4850350
p51
aVUS4857062
p52
aVUS4938210
p53
aVUS4951661
p54
aVUS4967743
p55
aVUS5009391
p56
aVUS5025806
p57
aVUS5029580
p58
aVUS5053014
p59
aVUS5057093
p60
aVUS5065754
p61
aVUS5073164
p62
aVUS5078131
p63
aVUS5083561
p64
aVUS5088486
p65
aVUS5134996
p66
aVUS5140983
p67
aVUS5158569
p68
aVEP0414997
p69
aVCH417265
p70
aVGB2029703
p71
asS'prior-dateDate'
p72
(lp73
cdatetime
date
p74
(S'\x07\xc9\x06\x17'
tRp75
ag74
(S'\x07\xc8\x04\x18'
tRp76
asS'IPCR11'
p77
(lp78
g5
ag6
ag7
asVCitO
p79
S''
sVdateDate
p80
g74
(S'\x07\xca\x08\x02'
tRp81
sVinventor-nice
p82
(lp83
VSchneiderJames
p84
aVKeeKok-Hiong
p85
asS'equivalents'
p86
(lp87
VUS5333606
p88
aVUS5343857
p89
asS'CitedBy'
p90
S''
sVrepresentative
p91
I1
sS'Applicant-Country'
p92
VUS
p93
sVdate
p94
S'1994-08-02'
p95
sVinventor
p96
(lp97
VSCHNEIDER JAMES
p98
aVKEE KOK-HIONG
p99
asVkind
p100
VA
sS'Inventor-Country'
p101
VUS
p102
sVapplicant-nice
p103
VSherwoodMedicalCo
p104
sS'IPCR1'
p105
VA
sVcountry
p106
VUS
p107
sS'IPCR3'
p108
VA61
p109
sVapplicant
p110
VSHERWOOD MEDICAL CO
p111
sS'IPCR4'
p112
VA61M
p113
sS'IPCR7'
p114
(lp115
VA61M1
p116
aVA61M16
p117
aVF16K5
p118
aVA61M25
p119
asS'prior'
p120
VCA2134123
p121
sVtitle
p122
VMethod for using a respirator accessory access port and adaptor therefore
p123
sVapplication-ref
p124
F1
s.(dp1
Vclassification
p2
(lp3
VA61M1/00
p4
aVA61M16/04
p5
aVA61M16/20
p6
aVF16K5/02
p7
aVA61M15/00
p8
aVA61M25/01
p9
asVCPC
p10
(lp11
VA61M16/0463
p12
aVA61M1/0064
p13
aVF16K5/0207
p14
aVA61M1/0043
p15
aVA61M15/009
p16
aVA61M25/0111
p17
asS'Citations'
p18
I0
sVreferences
p19
I0
sVyear
p20
S'2000'
p21
sS'label'
p22
VAT197768
p23
sVfamily lenght
p24
I31
sVpriority-active-indicator
p25
I4
sS'prior-Date'
p26
(lp27
V1992-04-24
p28
aV1992-10-19
p29
aV1992-10-19
p30
aV1992-10-19
p31
aV1993-04-21
p32
asVCitP
p33
S''
sS'prior-dateDate'
p34
(lp35
cdatetime
date
p36
(S'\x07\xc8\x04\x18'
tRp37
ag36
(S'\x07\xc8\n\x13'
tRp38
ag36
(S'\x07\xc8\n\x13'
tRp39
ag36
(S'\x07\xc8\n\x13'
tRp40
ag36
(S'\x07\xc9\x04\x15'
tRp41
asS'IPCR11'
p42
g9
sVCitO
p43
S''
sVdateDate
p44
g36
(S'\x07\xd0\x0c\x0f'
tRp45
sVinventor-nice
p46
(lp47
VSchneiderJames
p48
aVKeeKok-Hiong
p49
aVKollerNealG
p50
aVBrunoRobertH
p51
asS'equivalents'
p52
S'empty'
p53
sS'CitedBy'
p54
S''
sVrepresentative
p55
I0
sS'Applicant-Country'
p56
VUS
p57
sVdate
p58
S'2000-12-15'
p59
sVinventor
p60
(lp61
VSCHNEIDER JAMES
p62
aVKEE KOK-HIONG
p63
aVKOLLER NEAL G
p64
aVBRUNO ROBERT H
p65
asVkind
p66
VT
sS'Inventor-Country'
p67
VUS
p68
sVapplicant-nice
p69
VSherwoodMedicalCo
p70
sS'IPCR1'
p71
VA
sVcountry
p72
VAT
p73
sS'IPCR3'
p74
VA61
p75
sVapplicant
p76
VSHERWOOD MEDICAL CO
p77
sS'IPCR4'
p78
VA61M
p79
sS'IPCR7'
p80
(lp81
VA61M16
p82
aVF16K5
p83
aVA61M15
p84
aVA61M25
p85
asS'prior'
p86
VCA2134123
p87
sVtitle
p88
VATMUNGSUNTERSTTZUNGSSYSTEM
p89
sVapplication-ref
p90
F1
s.(dp1
Vclassification
p2
(lp3
VA61M1/00
p4
aVA61M16/04
p5
aVA61M16/20
p6
aVF16K5/02
p7
aVA61M15/00
p8
aVA61M25/01
p9
asVCPC
p10
(lp11
VA61M16/0463
p12
aVA61M1/0064
p13
aVF16K5/0207
p14
aVA61M1/0043
p15
aVA61M15/009
p16
aVA61M25/0111
p17
asS'Citations'
p18
I0
sVreferences
p19
I2
sVyear
p20
S'1997'
p21
sS'label'
p22
VAU678552
p23
sVfamily lenght
p24
I31
sVpriority-active-indicator
p25
I4
sS'prior-Date'
p26
(lp27
V1992-04-24
p28
aV1992-10-19
p29
aV1992-10-19
p30
aV1992-10-19
p31
aV1993-04-21
p32
asVCitP
p33
(lp34
VGB2207736
p35
aVUS3991762
p36
asS'prior-dateDate'
p37
(lp38
cdatetime
date
p39
(S'\x07\xc8\x04\x18'
tRp40
ag39
(S'\x07\xc8\n\x13'
tRp41
ag39
(S'\x07\xc8\n\x13'
tRp42
ag39
(S'\x07\xc8\n\x13'
tRp43
ag39
(S'\x07\xc9\x04\x15'
tRp44
asS'IPCR11'
p45
g9
sVCitO
p46
S''
sVdateDate
p47
g39
(S'\x07\xcd\x06\x05'
tRp48
sVinventor-nice
p49
(lp50
S'SchneiderJames'
p51
aS'KeeKok-Hiong'
p52
aS'KollerNealG'
p53
aS'BrunoRobertH'
p54
asS'equivalents'
p55
S'empty'
p56
sS'CitedBy'
p57
S''
sVrepresentative
p58
I0
sS'Applicant-Country'
p59
S''
sVdate
p60
S'1997-06-05'
p61
sVinventor
p62
(lp63
VSCHNEIDER JAMES
p64
aVKEE KOK-HIONG
p65
aVKOLLER NEAL G
p66
aVBRUNO ROBERT H
p67
asVkind
p68
VB2
p69
sS'Inventor-Country'
p70
S''
sVapplicant-nice
p71
S'SherwoodMedicalCo'
p72
sS'IPCR1'
p73
VA
sVcountry
p74
VAU
p75
sS'IPCR3'
p76
VA61
p77
sVapplicant
p78
VSHERWOOD MEDICAL CO
p79
sS'IPCR4'
p80
VA61M
p81
sS'IPCR7'
p82
(lp83
VA61M16
p84
aVF16K5
p85
aVA61M15
p86
aVA61M25
p87
asS'prior'
p88
VCA2134123
p89
sVtitle
p90
VRespiratory support system
p91
sVapplication-ref
p92
F1
s.(dp1
Vclassification
p2
(lp3
VA61M16/20
p4
aVF16K11/083
p5
asVCPC
p6
V
sS'Citations'
p7
I0
sVreferences
p8
I0
sVyear
p9
S'2000'
p10
sS'label'
p11
VAU718762
p12
sVfamily lenght
p13
I31
sVpriority-active-indicator
p14
I5
sS'prior-Date'
p15
(lp16
V1992-10-19
p17
aV1993-04-21
p18
aV1992-04-24
p19
aV1992-10-19
p20
aV1992-10-19
p21
asVCitP
p22
S''
sS'prior-dateDate'
p23
(lp24
cdatetime
date
p25
(S'\x07\xc8\n\x13'
tRp26
ag25
(S'\x07\xc9\x04\x15'
tRp27
ag25
(S'\x07\xc8\x04\x18'
tRp28
ag25
(S'\x07\xc8\n\x13'
tRp29
ag25
(S'\x07\xc8\n\x13'
tRp30
asS'IPCR11'
p31
(lp32
g4
ag5
asVCitO
p33
S''
sVdateDate
p34
g25
(S'\x07\xd0\x04\x14'
tRp35
sVinventor-nice
p36
(lp37
S'SchneiderJames'
p38
aS'KeeKok-Hiong'
p39
aS'KollerNealG'
p40
aS'BrunoRobertH'
p41
asS'equivalents'
p42
S'empty'
p43
sS'CitedBy'
p44
S''
sVrepresentative
p45
I0
sS'Applicant-Country'
p46
S''
sVdate
p47
S'2000-04-20'
p48
sVinventor
p49
(lp50
VSCHNEIDER JAMES
p51
aVKEE KOK-HIONG
p52
aVKOLLER NEAL G
p53
aVBRUNO ROBERT H
p54
asVkind
p55
VB2
p56
sS'Inventor-Country'
p57
S''
sVapplicant-nice
p58
S'SherwoodMedicalCo'
p59
sS'IPCR1'
p60
(lp61
VA
aVF
asVcountry
p62
VAU
p63
sS'IPCR3'
p64
(lp65
VA61
p66
aVF16
p67
asVapplicant
p68
VSHERWOOD MEDICAL CO
p69
sS'IPCR4'
p70
(lp71
VA61M
p72
aVF16K
p73
asS'IPCR7'
p74
(lp75
VA61M16
p76
aVF16K11
p77
asS'prior'
p78
VCA2134123
p79
sVtitle
p80
VRespiratory support system
p81
sVapplication-ref
p82
F1
s.(dp1
Vclassification
p2
(lp3
VA61M1/00
p4
aVA61M16/04
p5
aVA61M16/20
p6
aVF16K5/02
p7
aVA61M15/00
p8
aVA61M25/01
p9
asVCPC
p10
(lp11
VA61M16/0463
p12
aVA61M1/0064
p13
aVF16K5/0207
p14
aVA61M1/0043
p15
aVA61M15/009
p16
aVA61M25/0111
p17
asS'Citations'
p18
I0
sVreferences
p19
I0
sVyear
p20
S'1997'
p21
sS'label'
p22
VAU3521097
p23
sVfamily lenght
p24
I31
sVpriority-active-indicator
p25
I4
sS'prior-Date'
p26
(lp27
V1992-04-24
p28
aV1992-10-19
p29
aV1992-10-19
p30
aV1992-10-19
p31
asVCitP
p32
S''
sS'prior-dateDate'
p33
(lp34
cdatetime
date
p35
(S'\x07\xc8\x04\x18'
tRp36
ag35
(S'\x07\xc8\n\x13'
tRp37
ag35
(S'\x07\xc8\n\x13'
tRp38
ag35
(S'\x07\xc8\n\x13'
tRp39
asS'IPCR11'
p40
g9
sVCitO
p41
S''
sVdateDate
p42
g35
(S'\x07\xcd\x0b\r'
tRp43
sVinventor-nice
p44
(lp45
S'SchneiderJames'
p46
aS'KeeKok-Hiong'
p47
aS'KollerNealG'
p48
aS'BrunoRobertH'
p49
asS'equivalents'
p50
(lp51
VJPH07508192
p52
aVJP2004008817
p53
aVJP2007111558
p54
aVAU4112293
p55
aVAU3521197
p56
aVAT197768T
p57
aVEP0637257
p58
aVMX9302387
p59
aVAU3521097
p60
aVAU678552B
p61
aVDE69329711T
p62
aVES2153380T
p63
aVBR9306287
p64
aVWO9321981
p65
asS'CitedBy'
p66
S''
sVrepresentative
p67
I0
sS'Applicant-Country'
p68
S''
sVdate
p69
S'1997-11-13'
p70
sVinventor
p71
(lp72
VSCHNEIDER JAMES
p73
aVKEE KOK-HIONG
p74
aVKOLLER NEAL G
p75
aVBRUNO ROBERT H
p76
asVkind
p77
VA
sS'Inventor-Country'
p78
S''
sVapplicant-nice
p79
S'SherwoodMedicalCo'
p80
sS'IPCR1'
p81
VA
sVcountry
p82
VAU
p83
sS'IPCR3'
p84
VA61
p85
sVapplicant
p86
VSHERWOOD MEDICAL CO
p87
sS'IPCR4'
p88
VA61M
p89
sS'IPCR7'
p90
(lp91
VA61M16
p92
aVF16K5
p93
aVA61M15
p94
aVA61M25
p95
asS'prior'
p96
VCA2134123
p97
sVtitle
p98
VA suction catheter device
p99
sVapplication-ref
p100
F1
s.(dp1
Vclassification
p2
(lp3
VA61M1/00
p4
aVA61M16/04
p5
aVA61M16/20
p6
aVF16K5/02
p7
aVA61M15/00
p8
aVA61M25/01
p9
asVCPC
p10
(lp11
VA61M16/0463
p12
aVA61M1/0064
p13
aVF16K5/0207
p14
aVA61M1/0043
p15
aVA61M15/009
p16
aVA61M25/0111
p17
asS'Citations'
p18
I0
sVreferences
p19
I0
sVyear
p20
S'1997'
p21
sS'label'
p22
VAU3521197
p23
sVfamily lenght
p24
I31
sVpriority-active-indicator
p25
I4
sS'prior-Date'
p26
(lp27
V1992-10-19
p28
aV1992-04-24
p29
aV1992-10-19
p30
aV1992-10-19
p31
asVCitP
p32
S''
sS'prior-dateDate'
p33
(lp34
cdatetime
date
p35
(S'\x07\xc8\n\x13'
tRp36
ag35
(S'\x07\xc8\x04\x18'
tRp37
ag35
(S'\x07\xc8\n\x13'
tRp38
ag35
(S'\x07\xc8\n\x13'
tRp39
asS'IPCR11'
p40
g9
sVCitO
p41
S''
sVdateDate
p42
g35
(S'\x07\xcd\x0b\x06'
tRp43
sVinventor-nice
p44
(lp45
S'SchneiderJames'
p46
aS'KeeKok-Hiong'
p47
aS'KollerNealG'
p48
aS'BrunoRobertH'
p49
asS'equivalents'
p50
(lp51
VJPH07508192
p52
aVJP2004008817
p53
aVJP2007111558
p54
aVAU4112293
p55
aVAU3521197
p56
aVAT197768T
p57
aVEP0637257
p58
aVMX9302387
p59
aVAU3521097
p60
aVAU678552B
p61
aVDE69329711T
p62
aVES2153380T
p63
aVBR9306287
p64
aVWO9321981
p65
asS'CitedBy'
p66
S''
sVrepresentative
p67
I0
sS'Applicant-Country'
p68
S''
sVdate
p69
S'1997-11-06'
p70
sVinventor
p71
(lp72
VSCHNEIDER JAMES
p73
aVKEE KOK-HIONG
p74
aVKOLLER NEAL G
p75
aVBRUNO ROBERT H
p76
asVkind
p77
VA
sS'Inventor-Country'
p78
S''
sVapplicant-nice
p79
S'SherwoodMedicalCo'
p80
sS'IPCR1'
p81
VA
sVcountry
p82
VAU
p83
sS'IPCR3'
p84
VA61
p85
sVapplicant
p86
VSHERWOOD MEDICAL CO
p87
sS'IPCR4'
p88
VA61M
p89
sS'IPCR7'
p90
(lp91
VA61M16
p92
aVF16K5
p93
aVA61M15
p94
aVA61M25
p95
asS'prior'
p96
VCA2134123
p97
sVtitle
p98
VRespiratory support system
p99
sVapplication-ref
p100
F1
s.(dp1
Vclassification
p2
(lp3
VA61M16/20
p4
aVF16K11/083
p5
asVCPC
p6
V
sS'Citations'
p7
I0
sVreferences
p8
I0
sVyear
p9
S'1997'
p10
sS'label'
p11
VAU3521297
p12
sVfamily lenght
p13
I31
sVpriority-active-indicator
p14
I5
sS'prior-Date'
p15
(lp16
V1992-04-24
p17
aV1992-10-19
p18
aV1993-04-21
p19
aV1992-10-19
p20
aV1992-10-19
p21
asVCitP
p22
S''
sS'prior-dateDate'
p23
(lp24
cdatetime
date
p25
(S'\x07\xc8\x04\x18'
tRp26
ag25
(S'\x07\xc8\n\x13'
tRp27
ag25
(S'\x07\xc9\x04\x15'
tRp28
ag25
(S'\x07\xc8\n\x13'
tRp29
ag25
(S'\x07\xc8\n\x13'
tRp30
asS'IPCR11'
p31
(lp32
g4
ag5
asVCitO
p33
S''
sVdateDate
p34
g25
(S'\x07\xcd\x0b\x06'
tRp35
sVinventor-nice
p36
(lp37
S'SchneiderJames'
p38
aS'KeeKok-Hiong'
p39
aS'KollerNealG'
p40
aS'BrunoRobertH'
p41
asS'equivalents'
p42
(lp43
VAU3521297
p44
aVAU718762B
p45
asS'CitedBy'
p46
S''
sVrepresentative
p47
I0
sS'Applicant-Country'
p48
S''
sVdate
p49
S'1997-11-06'
p50
sVinventor
p51
(lp52
VSCHNEIDER JAMES
p53
aVKEE KOK-HIONG
p54
aVKOLLER NEAL G
p55
aVBRUNO ROBERT H
p56
asVkind
p57
VA
sS'Inventor-Country'
p58
S''
sVapplicant-nice
p59
S'SherwoodMedicalCo'
p60
sS'IPCR1'
p61
(lp62
VA
aVF
asVcountry
p63
VAU
p64
sS'IPCR3'
p65
(lp66
VA61
p67
aVF16
p68
asVapplicant
p69
VSHERWOOD MEDICAL CO
p70
sS'IPCR4'
p71
(lp72
VA61M
p73
aVF16K
p74
asS'IPCR7'
p75
(lp76
VA61M16
p77
aVF16K11
p78
asS'prior'
p79
VCA2134123
p80
sVtitle
p81
VRespiratory support system
p82
sVapplication-ref
p83
F1
s.(dp1
Vclassification
p2
(lp3
VA61M1/00
p4
aVA61M16/04
p5
aVA61M16/20
p6
aVF16K5/02
p7
aVA61M15/00
p8
aVA61M25/01
p9
asVCPC
p10
(lp11
VA61M16/0463
p12
aVA61M1/0064
p13
aVF16K5/0207
p14
aVA61M1/0043
p15
aVA61M15/009
p16
aVA61M25/0111
p17
asS'Citations'
p18
I0
sVreferences
p19
I0
sVyear
p20
S'1993'
p21
sS'label'
p22
VAU4112293
p23
sVfamily lenght
p24
I31
sVpriority-active-indicator
p25
I4
sS'prior-Date'
p26
(lp27
V1993-04-21
p28
aV1992-04-24
p29
aV1992-10-19
p30
aV1992-10-19
p31
aV1992-10-19
p32
asVCitP
p33
S''
sS'prior-dateDate'
p34
(lp35
cdatetime
date
p36
(S'\x07\xc9\x04\x15'
tRp37
ag36
(S'\x07\xc8\x04\x18'
tRp38
ag36
(S'\x07\xc8\n\x13'
tRp39
ag36
(S'\x07\xc8\n\x13'
tRp40
ag36
(S'\x07\xc8\n\x13'
tRp41
asS'IPCR11'
p42
g9
sVCitO
p43
S''
sVdateDate
p44
g36
(S'\x07\xc9\x0b\x1d'
tRp45
sVinventor-nice
p46
(lp47
S'SchneiderJames'
p48
aS'KeeKok-Hiong'
p49
aS'KollerNealG'
p50
aS'BrunoRobertH'
p51
asS'equivalents'
p52
(lp53
VJPH07508192
p54
aVJP2004008817
p55
aVJP2007111558
p56
aVAU4112293
p57
aVAU3521197
p58
aVAT197768T
p59
aVEP0637257
p60
aVMX9302387
p61
aVAU3521097
p62
aVAU678552B
p63
aVDE69329711T
p64
aVES2153380T
p65
aVBR9306287
p66
aVWO9321981
p67
asS'CitedBy'
p68
S''
sVrepresentative
p69
I0
sS'Applicant-Country'
p70
S''
sVdate
p71
S'1993-11-29'
p72
sVinventor
p73
(lp74
VSCHNEIDER JAMES
p75
aVKEE KOK-HIONG
p76
aVKOLLER NEAL G
p77
aVBRUNO ROBERT H
p78
asVkind
p79
VA
sS'Inventor-Country'
p80
S''
sVapplicant-nice
p81
S'SherwoodMedicalCo'
p82
sS'IPCR1'
p83
VA
sVcountry
p84
VAU
p85
sS'IPCR3'
p86
VA61
p87
sVapplicant
p88
VSHERWOOD MEDICAL CO
p89
sS'IPCR4'
p90
VA61M
p91
sS'IPCR7'
p92
(lp93
VA61M16
p94
aVF16K5
p95
aVA61M15
p96
aVA61M25
p97
asS'prior'
p98
VCA2134123
p99
sVtitle
p100
VRespiratory support system
p101
sVapplication-ref
p102
F1
s.(dp1
Vclassification
p2
(lp3
VA61M1/00
p4
aVA61M16/04
p5
aVA61M16/20
p6
aVF16K5/02
p7
aVA61M15/00
p8
aVA61M25/01
p9
asVCPC
p10
(lp11
VA61M16/0463
p12
aVA61M1/0064
p13
aVF16K5/0207
p14
aVA61M1/0043
p15
aVA61M15/009
p16
aVA61M25/0111
p17
asS'Citations'
p18
I0
sVreferences
p19
I0
sVyear
p20
S'1997'
p21
sS'label'
p22
VBR9306287
p23
sVfamily lenght
p24
I31
sVpriority-active-indicator
p25
I4
sS'prior-Date'
p26
(lp27
V1992-04-24
p28
aV1992-10-19
p29
aV1993-04-21
p30
aV1992-10-19
p31
aV1992-10-19
p32
asVCitP
p33
S''
sS'prior-dateDate'
p34
(lp35
cdatetime
date
p36
(S'\x07\xc8\x04\x18'
tRp37
ag36
(S'\x07\xc8\n\x13'
tRp38
ag36
(S'\x07\xc9\x04\x15'
tRp39
ag36
(S'\x07\xc8\n\x13'
tRp40
ag36
(S'\x07\xc8\n\x13'
tRp41
asS'IPCR11'
p42
g9
sVCitO
p43
S''
sVdateDate
p44
g36
(S'\x07\xcd\x06\x03'
tRp45
sVinventor-nice
p46
(lp47
S'SchneiderJames'
p48
aS'KeeKok-Hiong'
p49
aS'KollerNealG'
p50
aS'BrunoRobertH'
p51
asS'equivalents'
p52
(lp53
VJP2004008817
p54
aVAU4112293
p55
aVEP0637257
p56
aVMX9302387
p57
aVAU3521097
p58
aVES2153380T
p59
aVDE69329711T
p60
aVBR9306287
p61
aVWO9321981
p62
aVJPH07508192
p63
aVJP2007111558
p64
aVAU3521197
p65
aVAT197768T
p66
aVAU678552B
p67
asS'CitedBy'
p68
S''
sVrepresentative
p69
I0
sS'Applicant-Country'
p70
VUS
p71
sVdate
p72
S'1997-06-03'
p73
sVinventor
p74
(lp75
VSCHNEIDER JAMES
p76
aVKEE KOK-HIONG
p77
aVKOLLER NEAL G
p78
aVBRUNO ROBERT H
p79
asVkind
p80
VA
sS'Inventor-Country'
p81
S''
sVapplicant-nice
p82
VSherwoodMedicalCo
p83
sS'IPCR1'
p84
VA
sVcountry
p85
VBR
p86
sS'IPCR3'
p87
VA61
p88
sVapplicant
p89
VSHERWOOD MEDICAL CO
p90
sS'IPCR4'
p91
VA61M
p92
sS'IPCR7'
p93
(lp94
VA61M16
p95
aVF16K5
p96
aVA61M15
p97
aVA61M25
p98
asS'prior'
p99
VCA2134123
p100
sVtitle
p101
VSistema de suporte respiratrio
p102
sVapplication-ref
p103
F0.66666666666666663
s.(dp1
Vclassification
p2
(lp3
VA61M16/04
p4
aVA61M1/00
p5
aVA61M16/20
p6
aVF16K5/02
p7
aVA61M15/00
p8
aVA61M25/01
p9
aVA61M16/04
p10
aVA61M16/20
p11
ag10
ag11
asVCPC
p12
S''
sS'Citations'
p13
I0
sVreferences
p14
I0
sVyear
p15
(lp16
S'2006'
p17
aS'1993'
p18
ag18
asS'label'
p19
VCA2134123
p20
sVfamily lenght
p21
I31
sVpriority-active-indicator
p22
I5
sS'prior-Date'
p23
(lp24
V1992-10-19
p25
aV1992-10-19
p26
aV1992-04-24
p27
aV1993-04-21
p28
aV1992-10-19
p29
asVCitP
p30
S''
sS'prior-dateDate'
p31
(lp32
cdatetime
date
p33
(S'\x07\xc8\n\x13'
tRp34
ag33
(S'\x07\xc8\n\x13'
tRp35
ag33
(S'\x07\xc8\x04\x18'
tRp36
ag33
(S'\x07\xc9\x04\x15'
tRp37
ag33
(S'\x07\xc8\n\x13'
tRp38
asS'IPCR11'
p39
(lp40
g9
ag10
ag11
ag10
ag11
asVCitO
p41
S''
sVdateDate
p42
(lp43
g33
(S'\x07\xd6\x04\x0b'
tRp44
ag33
(S'\x07\xc9\x0b\x0b'
tRp45
ag45
asVinventor-nice
p46
(lp47
VSchneiderJames
p48
aVKeeKok-Hiong
p49
aVKollerNealG
p50
aVBrunoRobertH
p51
asS'equivalents'
p52
(lp53
VCA2134123
p54
aVCA2134123
p55
asS'CitedBy'
p56
S''
sVrepresentative
p57
I0
sS'Applicant-Country'
p58
(lp59
VUS
p60
aVUS
p61
asVdate
p62
(lp63
S'2006-04-11'
p64
aS'1993-11-11'
p65
ag65
asVinventor
p66
(lp67
VSCHNEIDER JAMES
p68
aVKEE KOK-HIONG
p69
aVKOLLER NEAL G
p70
aVBRUNO ROBERT H
p71
asVkind
p72
(lp73
VC
aVA1
p74
ag74
asS'Inventor-Country'
p75
(lp76
VUS
p77
aVUS
p78
asVapplicant-nice
p79
(lp80
VSherwoodMedicalCo
p81
aVSherwoodMedicalCo
p82
asS'IPCR1'
p83
(lp84
VA
aVA
asVcountry
p85
(lp86
VCA
p87
aVCA
p88
asS'IPCR3'
p89
(lp90
VA61
p91
aVA61
p92
asVapplicant
p93
(lp94
VSHERWOOD MEDICAL CO
p95
aVSHERWOOD MEDICAL CO
p96
asS'IPCR4'
p97
(lp98
VA61M
p99
aVA61M
p100
asS'IPCR7'
p101
(lp102
VA61M16
p103
aVF16K5
p104
aVA61M15
p105
aVA61M25
p106
aVA61M16
p107
ag107
asS'prior'
p108
VCA2134123
p109
sVtitle
p110
(lp111
VSYSTEME D'ASSISTANCE RESPIRATOIRE
p112
aVRESPIRATEUR
p113
ag113
asVapplication-ref
p114
F1
s.(dp1
Vclassification
p2
(lp3
VA61M1/00
p4
aVA61M16/04
p5
aVA61M16/20
p6
aVF16K5/02
p7
aVA61M15/00
p8
aVA61M25/01
p9
asVCPC
p10
(lp11
VA61M16/0463
p12
aVA61M1/0064
p13
aVF16K5/0207
p14
aVA61M1/0043
p15
aVA61M15/009
p16
aVA61M25/0111
p17
asS'Citations'
p18
I0
sVreferences
p19
I0
sVyear
p20
S'2001'
p21
sS'label'
p22
VDE69329711
p23
sVfamily lenght
p24
I31
sVpriority-active-indicator
p25
I4
sS'prior-Date'
p26
(lp27
V1992-04-24
p28
aV1992-10-19
p29
aV1992-10-19
p30
aV1993-04-21
p31
aV1992-10-19
p32
asVCitP
p33
S''
sS'prior-dateDate'
p34
(lp35
cdatetime
date
p36
(S'\x07\xc8\x04\x18'
tRp37
ag36
(S'\x07\xc8\n\x13'
tRp38
ag36
(S'\x07\xc8\n\x13'
tRp39
ag36
(S'\x07\xc9\x04\x15'
tRp40
ag36
(S'\x07\xc8\n\x13'
tRp41
asS'IPCR11'
p42
g9
sVCitO
p43
S''
sVdateDate
p44
g36
(S'\x07\xd1\x08\x02'
tRp45
sVinventor-nice
p46
(lp47
VSchneiderJames
p48
aVKeeKok-Hiong
p49
aVKollerG
p50
aVBrunoH
p51
asS'equivalents'
p52
S'empty'
p53
sS'CitedBy'
p54
S''
sVrepresentative
p55
I0
sS'Applicant-Country'
p56
VCH
p57
sVdate
p58
S'2001-08-02'
p59
sVinventor
p60
(lp61
VSCHNEIDER JAMES
p62
aVKEE KOK-HIONG
p63
aVKOLLER G
p64
aVBRUNO H
p65
asVkind
p66
VT2
p67
sS'Inventor-Country'
p68
VUS
p69
sVapplicant-nice
p70
VSherwoodServAg
p71
sS'IPCR1'
p72
VA
sVcountry
p73
VDE
p74
sS'IPCR3'
p75
VA61
p76
sVapplicant
p77
VSHERWOOD SERV AG
p78
sS'IPCR4'
p79
VA61M
p80
sS'IPCR7'
p81
(lp82
VA61M16
p83
aVF16K5
p84
aVA61M15
p85
aVA61M25
p86
asS'prior'
p87
VCA2134123
p88
sVtitle
p89
VATMUNGSUNTERSTTZUNGSSYSTEM
p90
sVapplication-ref
p91
F1
s.(dp1
Vclassification
p2
(lp3
VA61M1/00
p4
aVA61M16/04
p5
aVA61M16/20
p6
aVF16K5/02
p7
aVA61M15/00
p8
aVA61M25/01
p9
asVCPC
p10
(lp11
VA61M16/0463
p12
aVA61M1/0064
p13
aVF16K5/0207
p14
aVA61M1/0043
p15
aVA61M15/009
p16
aVA61M25/0111
p17
asS'Citations'
p18
I0
sVreferences
p19
I0
sVyear
p20
(lp21
S'2000'
p22
aS'1995'
p23
ag23
asS'label'
p24
VEP0637257
p25
sVfamily lenght
p26
I31
sVpriority-active-indicator
p27
I4
sS'prior-Date'
p28
(lp29
V1993-04-21
p30
aV1992-04-24
p31
aV1992-10-19
p32
aV1992-10-19
p33
aV1992-10-19
p34
asVCitP
p35
S''
sS'prior-dateDate'
p36
(lp37
cdatetime
date
p38
(S'\x07\xc9\x04\x15'
tRp39
ag38
(S'\x07\xc8\x04\x18'
tRp40
ag38
(S'\x07\xc8\n\x13'
tRp41
ag38
(S'\x07\xc8\n\x13'
tRp42
ag38
(S'\x07\xc8\n\x13'
tRp43
asS'IPCR11'
p44
(lp45
g9
aVA61M25/01
p46
asVCitO
p47
S''
sVdateDate
p48
(lp49
g38
(S'\x07\xd0\x0b\x1d'
tRp50
ag38
(S'\x07\xcb\x02\x08'
tRp51
ag51
asVinventor-nice
p52
(lp53
VSchneiderJames
p54
aVKeeKok-Hiong
p55
aVKollerNealG
p56
aVBrunoRobertH
p57
asS'equivalents'
p58
(lp59
VJPH07508192
p60
aVJP2004008817
p61
aVJP2007111558
p62
aVAU4112293
p63
aVAU3521197
p64
aVAT197768T
p65
aVEP0637257
p66
aVMX9302387
p67
aVAU3521097
p68
aVAU678552B
p69
aVDE69329711T
p70
aVES2153380T
p71
aVBR9306287
p72
aVWO9321981
p73
asS'CitedBy'
p74
S''
sVrepresentative
p75
I0
sS'Applicant-Country'
p76
(lp77
VUS
p78
aVUS
p79
asVdate
p80
(lp81
S'2000-11-29'
p82
aS'1995-02-08'
p83
ag83
asVinventor
p84
(lp85
VSCHNEIDER JAMES
p86
aVKEE KOK-HIONG
p87
aVKOLLER NEAL G
p88
aVBRUNO ROBERT H
p89
asVkind
p90
(lp91
VB1
p92
aVA1
p93
ag93
asS'Inventor-Country'
p94
(lp95
VUS
p96
aVUS
p97
asVapplicant-nice
p98
(lp99
VSherwoodMedicalCo
p100
aVSherwoodMedicalCo
p101
asS'IPCR1'
p102
(lp103
VA
aVA
asVcountry
p104
(lp105
VEP
p106
aVEP
p107
asS'IPCR3'
p108
(lp109
VA61
p110
aVA61
p111
asVapplicant
p112
(lp113
VSHERWOOD MEDICAL CO
p114
aVSHERWOOD MEDICAL CO
p115
asS'IPCR4'
p116
(lp117
VA61M
p118
aVA61M
p119
asS'IPCR7'
p120
(lp121
VA61M16
p122
aVF16K5
p123
aVA61M15
p124
aVA61M25
p125
asS'prior'
p126
VCA2134123
p127
sVtitle
p128
(lp129
VSYSTEME D'ASSISTANCE RESPIRATOIRE
p130
aVSYSTEME D'ASSISTANCE RESPIRATOIRE.
p131
ag131
asVapplication-ref
p132
F1
s.(dp1
Vclassification
p2
(lp3
VA61M1/00
p4
aVA61M16/04
p5
aVA61M16/20
p6
aVF16K5/02
p7
aVA61M15/00
p8
aVA61M25/01
p9
asVCPC
p10
(lp11
VA61M16/0463
p12
aVA61M1/0064
p13
aVF16K5/0207
p14
aVA61M1/0043
p15
aVA61M15/009
p16
aVA61M25/0111
p17
asS'Citations'
p18
I0
sVreferences
p19
I0
sVyear
p20
S'2001'
p21
sS'label'
p22
VES2153380
p23
sVfamily lenght
p24
I31
sVpriority-active-indicator
p25
I4
sS'prior-Date'
p26
(lp27
V1992-04-24
p28
aV1992-10-19
p29
aV1992-10-19
p30
aV1992-10-19
p31
asVCitP
p32
S''
sS'prior-dateDate'
p33
(lp34
cdatetime
date
p35
(S'\x07\xc8\x04\x18'
tRp36
ag35
(S'\x07\xc8\n\x13'
tRp37
ag35
(S'\x07\xc8\n\x13'
tRp38
ag35
(S'\x07\xc8\n\x13'
tRp39
asS'IPCR11'
p40
g9
sVCitO
p41
S''
sVdateDate
p42
g35
(S'\x07\xd1\x03\x01'
tRp43
sVinventor-nice
p44
(lp45
VSchneiderJames
p46
aVKeeKok-Hiong
p47
aVKollerNealG
p48
aVBrunoRobertH
p49
asS'equivalents'
p50
S'empty'
p51
sS'CitedBy'
p52
S''
sVrepresentative
p53
I0
sS'Applicant-Country'
p54
S''
sVdate
p55
S'2001-03-01'
p56
sVinventor
p57
(lp58
VSCHNEIDER JAMES
p59
aVKEE KOK-HIONG
p60
aVKOLLER NEAL G
p61
aVBRUNO ROBERT H
p62
asVkind
p63
VT3
p64
sS'Inventor-Country'
p65
VUS
p66
sVapplicant-nice
p67
S'SherwoodServAg'
p68
sS'IPCR1'
p69
VA
sVcountry
p70
VES
p71
sS'IPCR3'
p72
VA61
p73
sVapplicant
p74
VSHERWOOD SERV AG
p75
sS'IPCR4'
p76
VA61M
p77
sS'IPCR7'
p78
(lp79
VA61M16
p80
aVF16K5
p81
aVA61M15
p82
aVA61M25
p83
asS'prior'
p84
VCA2134123
p85
sVtitle
p86
VSISTEMA DE SOPORTE RESPIRATORIO.
p87
sVapplication-ref
p88
F1
s.(dp1
Vclassification
p2
(lp3
VA61M1/00
p4
aVA61M16/04
p5
aVA61M16/20
p6
aVF16K5/02
p7
aVA61M15/00
p8
aVA61M25/01
p9
asVCPC
p10
(lp11
VA61M1/0064
p12
aVA61M16/0463
p13
aVF16K5/0207
p14
aVA61M1/0043
p15
aVA61M15/009
p16
aVA61M25/0111
p17
asS'Citations'
p18
I0
sVreferences
p19
I0
sVyear
p20
S'2004'
p21
sS'label'
p22
VJP2004008817
p23
sVfamily lenght
p24
I31
sVpriority-active-indicator
p25
I4
sS'prior-Date'
p26
(lp27
V1992-04-24
p28
aV1992-10-19
p29
aV1992-10-19
p30
aV1992-10-19
p31
asVCitP
p32
S''
sS'prior-dateDate'
p33
(lp34
cdatetime
date
p35
(S'\x07\xc8\x04\x18'
tRp36
ag35
(S'\x07\xc8\n\x13'
tRp37
ag35
(S'\x07\xc8\n\x13'
tRp38
ag35
(S'\x07\xc8\n\x13'
tRp39
asS'IPCR11'
p40
g9
sVCitO
p41
S''
sVdateDate
p42
g35
(S'\x07\xd4\x01\x0f'
tRp43
sVinventor-nice
p44
(lp45
S'SchneiderJames'
p46
aS'KeeKok-Hiong'
p47
aS'KollerNealG'
p48
aS'BrunoRobertH'
p49
asS'equivalents'
p50
(lp51
VJP2004008817
p52
aVAU4112293
p53
aVEP0637257
p54
aVMX9302387
p55
aVAU3521097
p56
aVES2153380T
p57
aVDE69329711T
p58
aVWO9321981
p59
aVBR9306287
p60
aVJPH07508192
p61
aVJP2007111558
p62
aVAU3521197
p63
aVAT197768T
p64
aVAU678552B
p65
asS'CitedBy'
p66
S''
sVrepresentative
p67
I0
sS'Applicant-Country'
p68
S''
sVdate
p69
S'2004-01-15'
p70
sVinventor
p71
(lp72
VSCHNEIDER JAMES
p73
aVKEE KOK-HIONG
p74
aVKOLLER NEAL G
p75
aVBRUNO ROBERT H
p76
asVkind
p77
VA
sS'Inventor-Country'
p78
S''
sVapplicant-nice
p79
S'SherwoodServAg'
p80
sS'IPCR1'
p81
VA
sVcountry
p82
VJP
p83
sS'IPCR3'
p84
VA61
p85
sVapplicant
p86
VSHERWOOD SERV AG
p87
sS'IPCR4'
p88
VA61M
p89
sS'IPCR7'
p90
(lp91
VA61M16
p92
aVF16K5
p93
aVA61M15
p94
aVA61M25
p95
asS'prior'
p96
VCA2134123
p97
sVtitle
p98
VSUCTION CATHETER APPARATUS
p99
sVapplication-ref
p100
F1
s.(dp1
Vclassification
p2
(lp3
VA61M16/04
p4
aVA61M1/00
p5
aVA61M16/20
p6
aVF16K5/02
p7
aVA61M15/00
p8
aVA61M25/01
p9
asVCPC
p10
(lp11
VA61M1/0064
p12
aVA61M16/0463
p13
aVF16K5/0207
p14
aVA61M1/0043
p15
aVA61M15/009
p16
aVA61M25/0111
p17
asS'Citations'
p18
I0
sVreferences
p19
I0
sVyear
p20
S'2008'
p21
sS'label'
p22
VJP4125659
p23
sVfamily lenght
p24
I31
sVpriority-active-indicator
p25
I4
sS'prior-Date'
p26
(lp27
V1992-04-24
p28
aV1992-10-19
p29
aV1992-10-19
p30
aV1992-10-19
p31
asVCitP
p32
S''
sS'prior-dateDate'
p33
(lp34
cdatetime
date
p35
(S'\x07\xc8\x04\x18'
tRp36
ag35
(S'\x07\xc8\n\x13'
tRp37
ag35
(S'\x07\xc8\n\x13'
tRp38
ag35
(S'\x07\xc8\n\x13'
tRp39
asS'IPCR11'
p40
g9
sVCitO
p41
S''
sVdateDate
p42
g35
(S'\x07\xd8\x07\x1e'
tRp43
sVinventor-nice
p44
S'Empty'
p45
sS'equivalents'
p46
S'empty'
p47
sS'CitedBy'
p48
S''
sVrepresentative
p49
I0
sS'Applicant-Country'
p50
S''
sVdate
p51
S'2008-07-30'
p52
sVinventor
p53
Vempty
p54
sVkind
p55
VB2
p56
sS'Inventor-Country'
p57
S''
sVapplicant-nice
p58
S'Empty'
p59
sS'IPCR1'
p60
VA
sVcountry
p61
VJP
p62
sS'IPCR3'
p63
VA61
p64
sVapplicant
p65
g54
sS'IPCR4'
p66
VA61M
p67
sS'IPCR7'
p68
(lp69
VA61M16
p70
aVF16K5
p71
aVA61M15
p72
aVA61M25
p73
asS'prior'
p74
VCA2134123
p75
sVtitle
p76
Vempty
p77
sVapplication-ref
p78
F1
s.(dp1
Vclassification
p2
(lp3
VA61M1/00
p4
aVA61M16/04
p5
aVA61M16/20
p6
aVF16K5/02
p7
aVA61M15/00
p8
aVA61M25/01
p9
asVCPC
p10
(lp11
VA61M16/0463
p12
aVA61M1/0064
p13
aVF16K5/0207
p14
aVA61M1/0043
p15
aVA61M15/009
p16
aVA61M25/0111
p17
asS'Citations'
p18
I0
sVreferences
p19
I0
sVyear
p20
S'1995'
p21
sS'label'
p22
VJPH07508192
p23
sVfamily lenght
p24
I31
sVpriority-active-indicator
p25
I4
sS'prior-Date'
p26
(lp27
V1992-04-24
p28
aV1992-10-19
p29
aV1992-10-19
p30
aV1993-04-21
p31
aV1992-10-19
p32
asVCitP
p33
S''
sS'prior-dateDate'
p34
(lp35
cdatetime
date
p36
(S'\x07\xc8\x04\x18'
tRp37
ag36
(S'\x07\xc8\n\x13'
tRp38
ag36
(S'\x07\xc8\n\x13'
tRp39
ag36
(S'\x07\xc9\x04\x15'
tRp40
ag36
(S'\x07\xc8\n\x13'
tRp41
asS'IPCR11'
p42
g9
sVCitO
p43
S''
sVdateDate
p44
g36
(S'\x07\xcb\t\x0e'
tRp45
sVinventor-nice
p46
S'Empty'
p47
sS'equivalents'
p48
(lp49
VJP2004008817
p50
aVAU4112293
p51
aVEP0637257
p52
aVMX9302387
p53
aVAU3521097
p54
aVES2153380T
p55
aVDE69329711T
p56
aVWO9321981
p57
aVBR9306287
p58
aVJPH07508192
p59
aVJP2007111558
p60
aVAU3521197
p61
aVAT197768T
p62
aVAU678552B
p63
asS'CitedBy'
p64
S''
sVrepresentative
p65
I0
sS'Applicant-Country'
p66
S''
sVdate
p67
S'1995-09-14'
p68
sVinventor
p69
Vempty
p70
sVkind
p71
VA
sS'Inventor-Country'
p72
S''
sVapplicant-nice
p73
S'Empty'
p74
sS'IPCR1'
p75
VA
sVcountry
p76
VJP
p77
sS'IPCR3'
p78
VA61
p79
sVapplicant
p80
g70
sS'IPCR4'
p81
VA61M
p82
sS'IPCR7'
p83
(lp84
VA61M16
p85
aVF16K5
p86
aVA61M15
p87
aVA61M25
p88
asS'prior'
p89
VCA2134123
p90
sVtitle
p91
Vempty
p92
sVapplication-ref
p93
F1
s.(dp1
Vclassification
p2
(lp3
VA61M16/00
p4
aVA61M1/00
p5
aVA61M16/04
p6
aVA61M16/20
p7
aVF16K5/02
p8
aVA61M15/00
p9
aVA61M25/01
p10
asVCPC
p11
(lp12
VA61M1/0064
p13
aVA61M16/0463
p14
aVF16K5/0207
p15
aVA61M1/0043
p16
aVA61M15/009
p17
aVA61M25/0111
p18
asS'Citations'
p19
I0
sVreferences
p20
I0
sVyear
p21
S'2007'
p22
sS'label'
p23
VJP2007111558
p24
sVfamily lenght
p25
I31
sVpriority-active-indicator
p26
I4
sS'prior-Date'
p27
(lp28
V1992-04-24
p29
aV1992-10-19
p30
aV1992-10-19
p31
aV1992-10-19
p32
asVCitP
p33
S''
sS'prior-dateDate'
p34
(lp35
cdatetime
date
p36
(S'\x07\xc8\x04\x18'
tRp37
ag36
(S'\x07\xc8\n\x13'
tRp38
ag36
(S'\x07\xc8\n\x13'
tRp39
ag36
(S'\x07\xc8\n\x13'
tRp40
asS'IPCR11'
p41
g10
sVCitO
p42
S''
sVdateDate
p43
g36
(S'\x07\xd7\x05\n'
tRp44
sVinventor-nice
p45
(lp46
S'SchneiderJames'
p47
aS'KeeKok-Hiong'
p48
aS'KollerNealG'
p49
aS'BrunoRobertH'
p50
asS'equivalents'
p51
(lp52
VJPH07508192
p53
aVJP2004008817
p54
aVJP2007111558
p55
aVAU4112293
p56
aVAU3521197
p57
aVAT197768T
p58
aVEP0637257
p59
aVMX9302387
p60
aVAU3521097
p61
aVAU678552B
p62
aVDE69329711T
p63
aVES2153380T
p64
aVBR9306287
p65
aVWO9321981
p66
asS'CitedBy'
p67
S''
sVrepresentative
p68
I0
sS'Applicant-Country'
p69
S''
sVdate
p70
S'2007-05-10'
p71
sVinventor
p72
(lp73
VSCHNEIDER JAMES
p74
aVKEE KOK-HIONG
p75
aVKOLLER NEAL G
p76
aVBRUNO ROBERT H
p77
asVkind
p78
VA
sS'Inventor-Country'
p79
S''
sVapplicant-nice
p80
S'SherwoodServAg'
p81
sS'IPCR1'
p82
VA
sVcountry
p83
VJP
p84
sS'IPCR3'
p85
VA61
p86
sVapplicant
p87
VSHERWOOD SERV AG
p88
sS'IPCR4'
p89
VA61M
p90
sS'IPCR7'
p91
(lp92
VA61M16
p93
aVF16K5
p94
aVA61M15
p95
aVA61M25
p96
asS'prior'
p97
VCA2134123
p98
sVtitle
p99
VMETHOD FOR ATTACHING RESPIRATORY SUPPORT SYSTEM ATTACHMENT TO RESPIRATORY SUPPORT SYSTEM VIA ADAPTER
p100
sVapplication-ref
p101
F1
s.(dp1
Vclassification
p2
(lp3
VA61M1/00
p4
aVA61M16/04
p5
aVA61M16/20
p6
aVF16K5/02
p7
aVA61M15/00
p8
aVA61M25/01
p9
asVCPC
p10
(lp11
VA61M16/0463
p12
aVA61M1/0064
p13
aVF16K5/0207
p14
aVA61M1/0043
p15
aVA61M15/009
p16
aVA61M25/0111
p17
asS'Citations'
p18
I0
sVreferences
p19
I0
sVyear
p20
S'1994'
p21
sS'label'
p22
VMX9302387
p23
sVfamily lenght
p24
I31
sVpriority-active-indicator
p25
I4
sS'prior-Date'
p26
(lp27
V1992-04-24
p28
aV1992-10-19
p29
aV1992-10-19
p30
aV1992-10-19
p31
asVCitP
p32
S''
sS'prior-dateDate'
p33
(lp34
cdatetime
date
p35
(S'\x07\xc8\x04\x18'
tRp36
ag35
(S'\x07\xc8\n\x13'
tRp37
ag35
(S'\x07\xc8\n\x13'
tRp38
ag35
(S'\x07\xc8\n\x13'
tRp39
asS'IPCR11'
p40
g9
sVCitO
p41
S''
sVdateDate
p42
g35
(S'\x07\xca\x05\x1f'
tRp43
sVinventor-nice
p44
(lp45
VBrunoRobertH
p46
aS'SchneiderJames'
p47
aS'KeeKok-Hiong'
p48
aS'KollerNealG'
p49
asS'equivalents'
p50
(lp51
VJPH07508192
p52
aVJP2004008817
p53
aVJP2007111558
p54
aVAU4112293
p55
aVAU3521197
p56
aVAT197768T
p57
aVEP0637257
p58
aVMX9302387
p59
aVAU3521097
p60
aVAU678552B
p61
aVDE69329711T
p62
aVES2153380T
p63
aVBR9306287
p64
aVWO9321981
p65
asS'CitedBy'
p66
S''
sVrepresentative
p67
I0
sS'Applicant-Country'
p68
VUS
p69
sVdate
p70
S'1994-05-31'
p71
sVinventor
p72
(lp73
VBRUNO ROBERT H
p74
aVSCHNEIDER JAMES
p75
aVKEE KOK-HIONG
p76
aVKOLLER NEAL G
p77
asVkind
p78
VA
sS'Inventor-Country'
p79
VUS
p80
sVapplicant-nice
p81
VSherwoodMedicalCo
p82
sS'IPCR1'
p83
VA
sVcountry
p84
VMX
p85
sS'IPCR3'
p86
VA61
p87
sVapplicant
p88
VSHERWOOD MEDICAL CO
p89
sS'IPCR4'
p90
VA61M
p91
sS'IPCR7'
p92
(lp93
VA61M16
p94
aVF16K5
p95
aVA61M15
p96
aVA61M25
p97
asS'prior'
p98
VCA2134123
p99
sVtitle
p100
VSISTEMA DE SUSTENTACION RESPIRATORIA.
p101
sVapplication-ref
p102
F1
s.(dp1
Vclassification
p2
(lp3
VA61M1/00
p4
aVA61M16/04
p5
aVF16K5/02
p6
aVA61M25/01
p7
asVCPC
p8
(lp9
VA61M1/0064
p10
aVA61M16/0463
p11
aVF16K5/0207
p12
aVA61M1/0043
p13
aVA61M25/0111
p14
aVY10S128/912
p15
aVY10S128/908
p16
asS'Citations'
p17
I0
sVreferences
p18
I34
sVyear
p19
S'1994'
p20
sS'label'
p21
VUS5309902
p22
sVfamily lenght
p23
I31
sVpriority-active-indicator
p24
I1
sS'prior-Date'
p25
V1992-10-19
p26
sVCitP
p27
(lp28
VUS1588336
p29
aVUS2946156
p30
aVUS2956819
p31
aVUS3112748
p32
aVUS3565078
p33
aVUS3577992
p34
aVUS3707972
p35
aVUS3991762
p36
aVUS4240417
p37
aVUS4246899
p38
aVUS4351328
p39
aVUS4468224
p40
aVUS4510933
p41
aVUS4593689
p42
aVUS4638539
p43
aVUS4751924
p44
aVUS4762125
p45
aVUS4781702
p46
aVUS4796615
p47
aVUS4805611
p48
aVUS4838255
p49
aVUS4850350
p50
aVUS4951661
p51
aVUS4979765
p52
aVUS5009391
p53
aVUS5025806
p54
aVUS5029580
p55
aVUS5057093
p56
aVUS5083561
p57
aVUS5088486
p58
aVUS5134996
p59
aVUS5139018
p60
aVUS5158569
p61
aVUS5215522
p62
asS'prior-dateDate'
p63
cdatetime
date
p64
(S'\x07\xc8\n\x13'
tRp65
sS'IPCR11'
p66
(lp67
g5
ag6
ag7
asVCitO
p68
S''
sVdateDate
p69
g64
(S'\x07\xca\x05\n'
tRp70
sVinventor-nice
p71
(lp72
VKeeKok-Hiong
p73
aVSchneiderJamesG
p74
aVKollerNealG
p75
aVBrunoRobertH
p76
asS'equivalents'
p77
(lp78
VUS5738091
p79
aVUS5309902
p80
asS'CitedBy'
p81
S''
sVrepresentative
p82
I1
sS'Applicant-Country'
p83
VUS
p84
sVdate
p85
S'1994-05-10'
p86
sVinventor
p87
(lp88
VKEE KOK-HIONG
p89
aVSCHNEIDER JAMES G
p90
aVKOLLER NEAL G
p91
aVBRUNO ROBERT H
p92
asVkind
p93
VA
sS'Inventor-Country'
p94
VUS
p95
sVapplicant-nice
p96
VSherwoodMedicalCo
p97
sS'IPCR1'
p98
VA
sVcountry
p99
VUS
p100
sS'IPCR3'
p101
VA61
p102
sVapplicant
p103
VSHERWOOD MEDICAL CO
p104
sS'IPCR4'
p105
VA61M
p106
sS'IPCR7'
p107
(lp108
VA61M1
p109
aVA61M16
p110
aVF16K5
p111
aVA61M25
p112
asS'prior'
p113
VCA2134123
p114
sVtitle
p115
VRespiratory support system and suction catheter device therefor
p116
sVapplication-ref
p117
F1
s.(dp1
Vclassification
p2
(lp3
VA61M1/00
p4
aVA61M16/04
p5
aVF16K5/02
p6
aVA61M15/00
p7
aVA61M25/01
p8
asVCPC
p9
(lp10
VA61M1/0064
p11
aVA61M16/0463
p12
aVF16K5/0207
p13
aVA61M1/0043
p14
aVA61M15/009
p15
aVA61M25/0111
p16
aVY10S128/912
p17
asS'Citations'
p18
I0
sVreferences
p19
I18
sVyear
p20
S'1994'
p21
sS'label'
p22
VUS5333607
p23
sVfamily lenght
p24
I31
sVpriority-active-indicator
p25
I1
sS'prior-Date'
p26
V1992-10-19
p27
sVCitP
p28
(lp29
VUS1588336
p30
aVUS3416567
p31
aVUS4240417
p32
aVUS4346702
p33
aVUS4351328
p34
aVUS4426062
p35
aVUS4510933
p36
aVUS4569344
p37
aVUS4781702
p38
aVUS4805611
p39
aVUS4836199
p40
aVUS4850350
p41
aVUS4857062
p42
aVUS4951661
p43
aVUS5009391
p44
aVUS5083561
p45
aVUS5158569
p46
aVUS5215522
p47
asS'prior-dateDate'
p48
cdatetime
date
p49
(S'\x07\xc8\n\x13'
tRp50
sS'IPCR11'
p51
g8
sVCitO
p52
S''
sVdateDate
p53
g49
(S'\x07\xca\x08\x02'
tRp54
sVinventor-nice
p55
(lp56
VKeeKok-Hiong
p57
aVSchneiderJamesG
p58
aVBrunoRobertH
p59
asS'equivalents'
p60
VUS5333607
p61
sS'CitedBy'
p62
S''
sVrepresentative
p63
I0
sS'Applicant-Country'
p64
VUS
p65
sVdate
p66
S'1994-08-02'
p67
sVinventor
p68
(lp69
VKEE KOK-HIONG
p70
aVSCHNEIDER JAMES G
p71
aVBRUNO ROBERT H
p72
asVkind
p73
VA
sS'Inventor-Country'
p74
VUS
p75
sVapplicant-nice
p76
VSherwoodMedicalCo
p77
sS'IPCR1'
p78
VA
sVcountry
p79
VUS
p80
sS'IPCR3'
p81
VA61
p82
sVapplicant
p83
VSHERWOOD MEDICAL CO
p84
sS'IPCR4'
p85
VA61M
p86
sS'IPCR7'
p87
(lp88
VA61M1
p89
aVA61M16
p90
aVF16K5
p91
aVA61M15
p92
aVA61M25
p93
asS'prior'
p94
VCA2134123
p95
sVtitle
p96
VVentilator manifold with accessory access port
p97
sVapplication-ref
p98
F1
s.(dp1
Vclassification
p2
(lp3
VA61M1/00
p4
aVA61M16/04
p5
aVF16K5/02
p6
aVA61M25/01
p7
asVCPC
p8
(lp9
VA61M1/0064
p10
aVA61M16/0463
p11
aVF16K5/0207
p12
aVA61M1/0043
p13
aVA61M25/0111
p14
aVY10S251/904
p15
aVY10T137/7058
p16
aVY10T137/8326
p17
aVY10T137/8803
p18
asS'Citations'
p19
I0
sVreferences
p20
I18
sVyear
p21
S'1994'
p22
sS'label'
p23
VUS5337780
p24
sVfamily lenght
p25
I31
sVpriority-active-indicator
p26
I1
sS'prior-Date'
p27
V1992-10-19
p28
sVCitP
p29
(lp30
VUS1088817
p31
aVUS1214267
p32
aVUS2791217
p33
aVUS3012752
p34
aVUS3081770
p35
aVUS3335727
p36
aVUS3395705
p37
aVUS3991762
p38
aVUS4291691
p39
aVUS4346702
p40
aVUS4569344
p41
aVUS4648868
p42
aVUS4792327
p43
aVUS4872579
p44
aVUS5083561
p45
aVUS5144972
p46
aVUS5215522
p47
aVDE3347834
p48
asS'prior-dateDate'
p49
cdatetime
date
p50
(S'\x07\xc8\n\x13'
tRp51
sS'IPCR11'
p52
(lp53
g5
ag6
ag7
asVCitO
p54
S''
sVdateDate
p55
g50
(S'\x07\xca\x08\x10'
tRp56
sVinventor-nice
p57
VKeeKok-Hiong
p58
sS'equivalents'
p59
VUS5337780
p60
sS'CitedBy'
p61
S''
sVrepresentative
p62
I1
sS'Applicant-Country'
p63
VUS
p64
sVdate
p65
S'1994-08-16'
p66
sVinventor
p67
VKEE KOK-HIONG
p68
sVkind
p69
VA
sS'Inventor-Country'
p70
VUS
p71
sVapplicant-nice
p72
VSherwoodMedicalCo
p73
sS'IPCR1'
p74
VA
sVcountry
p75
VUS
p76
sS'IPCR3'
p77
VA61
p78
sVapplicant
p79
VSHERWOOD MEDICAL CO
p80
sS'IPCR4'
p81
VA61M
p82
sS'IPCR7'
p83
(lp84
VA61M1
p85
aVA61M16
p86
aVF16K5
p87
aVA61M25
p88
asS'prior'
p89
VCA2134123
p90
sVtitle
p91
VSuction control valve
p92
sVapplication-ref
p93
F1
s.(dp1
Vclassification
p2
(lp3
VA61M1/00
p4
aVA61M16/04
p5
aVF16K5/02
p6
aVA61M25/01
p7
asVCPC
p8
(lp9
VA61M1/0064
p10
aVA61M16/0463
p11
aVF16K5/0207
p12
aVA61M1/0043
p13
aVA61M25/0111
p14
aVY10S128/912
p15
asS'Citations'
p16
I0
sVreferences
p17
I47
sVyear
p18
S'1994'
p19
sS'label'
p20
VUS5343857
p21
sVfamily lenght
p22
I31
sVpriority-active-indicator
p23
I1
sS'prior-Date'
p24
(lp25
V1993-07-27
p26
aV1992-04-24
p27
asVCitP
p28
(lp29
VUS1588336
p30
aVUS1952451
p31
aVUS3202442
p32
aVUS3825001
p33
aVUS3991762
p34
aVUS4213716
p35
aVUS4240417
p36
aVUS4346702
p37
aVUS4351328
p38
aVUS4351619
p39
aVUS4426062
p40
aVUS4475548
p41
aVUS4510933
p42
aVUS4523868
p43
aVUS4552473
p44
aVUS4621633
p45
aVUS4691702
p46
aVUS4696296
p47
aVUS4747711
p48
aVUS4751924
p49
aVUS4781702
p50
aVUS4796615
p51
aVUS4805611
p52
aVUS4825859
p53
aVUS4834710
p54
aVUS4836199
p55
aVUS4850350
p56
aVUS4857062
p57
aVUS4938210
p58
aVUS4951661
p59
aVUS4967743
p60
aVUS5009391
p61
aVUS5025806
p62
aVUS5029580
p63
aVUS5053014
p64
aVUS5057093
p65
aVUS5065754
p66
aVUS5073164
p67
aVUS5078131
p68
aVUS5083561
p69
aVUS5088486
p70
aVUS5114254
p71
aVUS5134996
p72
aVUS5140983
p73
aVUS5158569
p74
aVCH417265
p75
aVGB2029703
p76
asS'prior-dateDate'
p77
(lp78
cdatetime
date
p79
(S'\x07\xc9\x07\x1b'
tRp80
ag79
(S'\x07\xc8\x04\x18'
tRp81
asS'IPCR11'
p82
(lp83
g5
ag6
ag7
asVCitO
p84
S''
sVdateDate
p85
g79
(S'\x07\xca\t\x06'
tRp86
sVinventor-nice
p87
(lp88
VSchneiderJames
p89
aVKeeKok-Hiong
p90
asS'equivalents'
p91
(lp92
VUS5333606
p93
aVUS5343857
p94
asS'CitedBy'
p95
S''
sVrepresentative
p96
I0
sS'Applicant-Country'
p97
VUS
p98
sVdate
p99
S'1994-09-06'
p100
sVinventor
p101
(lp102
VSCHNEIDER JAMES
p103
aVKEE KOK-HIONG
p104
asVkind
p105
VA
sS'Inventor-Country'
p106
VUS
p107
sVapplicant-nice
p108
VSherwoodMedicalCo
p109
sS'IPCR1'
p110
VA
sVcountry
p111
VUS
p112
sS'IPCR3'
p113
VA61
p114
sVapplicant
p115
VSHERWOOD MEDICAL CO
p116
sS'IPCR4'
p117
VA61M
p118
sS'IPCR7'
p119
(lp120
VA61M1
p121
aVA61M16
p122
aVF16K5
p123
aVA61M25
p124
asS'prior'
p125
VCA2134123
p126
sVtitle
p127
VRespiratory accessory access port and adaptor therefore
p128
sVapplication-ref
p129
F1
s.(dp1
Vclassification
p2
(lp3
VA61M1/00
p4
aVA61M16/04
p5
aVF16K5/02
p6
aVA61M15/00
p7
aVA61M25/01
p8
asVCPC
p9
(lp10
VA61M1/0064
p11
aVA61M16/0463
p12
aVF16K5/0207
p13
aVA61M1/0043
p14
aVA61M15/009
p15
aVA61M25/0111
p16
aVY10S128/912
p17
asS'Citations'
p18
I0
sVreferences
p19
I27
sVyear
p20
S'1994'
p21
sS'label'
p22
VUS5357946
p23
sVfamily lenght
p24
I31
sVpriority-active-indicator
p25
I2
sS'prior-Date'
p26
(lp27
V1993-06-21
p28
aV1992-10-19
p29
asVCitP
p30
(lp31
VUS954519
p32
aVUS1588336
p33
aVUS3416567
p34
aVUS4240417
p35
aVUS4346702
p36
aVUS4351328
p37
aVUS4426062
p38
aVUS4475548
p39
aVUS4484577
p40
aVUS4510933
p41
aVUS4569344
p42
aVUS4580556
p43
aVUS4781702
p44
aVUS4805611
p45
aVUS4836199
p46
aVUS4850350
p47
aVUS4857062
p48
aVUS4938210
p49
aVUS4951661
p50
aVUS5009391
p51
aVUS5025806
p52
aVUS5083561
p53
aVUS5158569
p54
aVUS5178138
p55
aVUS5215522
p56
aVUS5269756
p57
aVEP0414997
p58
asS'prior-dateDate'
p59
(lp60
cdatetime
date
p61
(S'\x07\xc9\x06\x15'
tRp62
ag61
(S'\x07\xc8\n\x13'
tRp63
asS'IPCR11'
p64
g8
sVCitO
p65
S''
sVdateDate
p66
g61
(S'\x07\xca\n\x19'
tRp67
sVinventor-nice
p68
(lp69
VKeeKok-Hiong
p70
aVSchneiderJamesG
p71
asS'equivalents'
p72
VUS5357946
p73
sS'CitedBy'
p74
S''
sVrepresentative
p75
I1
sS'Applicant-Country'
p76
VUS
p77
sVdate
p78
S'1994-10-25'
p79
sVinventor
p80
(lp81
VKEE KOK-HIONG
p82
aVSCHNEIDER JAMES G
p83
asVkind
p84
VA
sS'Inventor-Country'
p85
VUS
p86
sVapplicant-nice
p87
VSherwoodMedicalCo
p88
sS'IPCR1'
p89
VA
sVcountry
p90
VUS
p91
sS'IPCR3'
p92
VA61
p93
sVapplicant
p94
VSHERWOOD MEDICAL CO
p95
sS'IPCR4'
p96
VA61M
p97
sS'IPCR7'
p98
(lp99
VA61M1
p100
aVA61M16
p101
aVF16K5
p102
aVA61M15
p103
aVA61M25
p104
asS'prior'
p105
VCA2134123
p106
sVtitle
p107
VVentilator manifold with accessory access port and adaptors therefore
p108
sVapplication-ref
p109
F1
s.(dp1
Vclassification
p2
(lp3
VA61M1/00
p4
aVA61M16/04
p5
aVF16K5/02
p6
aVA61M15/00
p7
aVA61M25/01
p8
asVCPC
p9
(lp10
VA61M1/0064
p11
aVA61M16/0463
p12
aVF16K5/0207
p13
aVA61M1/0043
p14
aVA61M15/009
p15
aVA61M25/0111
p16
asS'Citations'
p17
I0
sVreferences
p18
I23
sVyear
p19
S'1995'
p20
sS'label'
p21
VUS5445141
p22
sVfamily lenght
p23
I31
sVpriority-active-indicator
p24
I2
sS'prior-Date'
p25
(lp26
V1994-04-21
p27
aV1992-10-19
p28
asVCitP
p29
(lp30
VUS1588336
p31
aVUS3416567
p32
aVUS3528427
p33
aVUS3590820
p34
aVUS4182343
p35
aVUS4240417
p36
aVUS4346702
p37
aVUS4351328
p38
aVUS4426062
p39
aVUS4510933
p40
aVUS4569344
p41
aVUS4781702
p42
aVUS4805611
p43
aVUS4836199
p44
aVUS4850350
p45
aVUS4857062
p46
aVUS4950232
p47
aVUS4951661
p48
aVUS5009391
p49
aVUS5083561
p50
aVUS5158569
p51
aVUS5215522
p52
aVUS5333607
p53
asS'prior-dateDate'
p54
(lp55
cdatetime
date
p56
(S'\x07\xca\x04\x15'
tRp57
ag56
(S'\x07\xc8\n\x13'
tRp58
asS'IPCR11'
p59
g8
sVCitO
p60
S''
sVdateDate
p61
g56
(S'\x07\xcb\x08\x1d'
tRp62
sVinventor-nice
p63
(lp64
VKeeKok-Hiong
p65
aVSchneiderJamesG
p66
aVKartchnerGeneB
p67
asS'equivalents'
p68
VUS5445141
p69
sS'CitedBy'
p70
S''
sVrepresentative
p71
I1
sS'Applicant-Country'
p72
VUS
p73
sVdate
p74
S'1995-08-29'
p75
sVinventor
p76
(lp77
VKEE KOK-HIONG
p78
aVSCHNEIDER JAMES G
p79
aVKARTCHNER GENE B
p80
asVkind
p81
VA
sS'Inventor-Country'
p82
VUS
p83
sVapplicant-nice
p84
VSherwoodMedicalCo
p85
sS'IPCR1'
p86
VA
sVcountry
p87
VUS
p88
sS'IPCR3'
p89
VA61
p90
sVapplicant
p91
VSHERWOOD MEDICAL CO
p92
sS'IPCR4'
p93
VA61M
p94
sS'IPCR7'
p95
(lp96
VA61M1
p97
aVA61M16
p98
aVF16K5
p99
aVA61M15
p100
aVA61M25
p101
asS'prior'
p102
VCA2134123
p103
sVtitle
p104
VRespiratory support system
p105
sVapplication-ref
p106
F1
s.(dp1
Vclassification
p2
(lp3
VA61M1/00
p4
aVA61M16/04
p5
aVF16K5/02
p6
aVA61M15/00
p7
aVA61M25/01
p8
asVCPC
p9
(lp10
VA61M1/0064
p11
aVA61M16/0463
p12
aVF16K5/0207
p13
aVA61M1/0043
p14
aVA61M15/009
p15
aVA61M25/0111
p16
asS'Citations'
p17
I0
sVreferences
p18
I22
sVyear
p19
S'1997'
p20
sS'label'
p21
VUS5628306
p22
sVfamily lenght
p23
I31
sVpriority-active-indicator
p24
I2
sS'prior-Date'
p25
(lp26
V1992-10-19
p27
aV1994-04-21
p28
asVCitP
p29
(lp30
VUS1588336
p31
aVUS3416567
p32
aVUS4240417
p33
aVUS4346702
p34
aVUS4351328
p35
aVUS4426062
p36
aVUS4510933
p37
aVUS4569344
p38
aVUS4781702
p39
aVUS4805611
p40
aVUS4836199
p41
aVUS4850350
p42
aVUS4857062
p43
aVUS4951661
p44
aVUS5000745
p45
aVUS5009391
p46
aVUS5083561
p47
aVUS5114408
p48
aVUS5154701
p49
aVUS5158569
p50
aVUS5215522
p51
aVUS5333607
p52
asS'prior-dateDate'
p53
(lp54
cdatetime
date
p55
(S'\x07\xc8\n\x13'
tRp56
ag55
(S'\x07\xca\x04\x15'
tRp57
asS'IPCR11'
p58
g8
sVCitO
p59
S''
sVdateDate
p60
g55
(S'\x07\xcd\x05\r'
tRp61
sVinventor-nice
p62
VKeeKok-Hiong
p63
sS'equivalents'
p64
VUS5628306
p65
sS'CitedBy'
p66
S''
sVrepresentative
p67
I1
sS'Applicant-Country'
p68
S''
sVdate
p69
S'1997-05-13'
p70
sVinventor
p71
VKEE KOK-HIONG
p72
sVkind
p73
VA
sS'Inventor-Country'
p74
VUS
p75
sVapplicant-nice
p76
S'Empty'
p77
sS'IPCR1'
p78
VA
sVcountry
p79
VUS
p80
sS'IPCR3'
p81
VA61
p82
sVapplicant
p83
Vempty
p84
sS'IPCR4'
p85
VA61M
p86
sS'IPCR7'
p87
(lp88
VA61M1
p89
aVA61M16
p90
aVF16K5
p91
aVA61M15
p92
aVA61M25
p93
asS'prior'
p94
VCA2134123
p95
sVtitle
p96
VRespiratory manifold with accessory access port
p97
sVapplication-ref
p98
F1
s.(dp1
Vclassification
p2
(lp3
VA61M1/00
p4
aVA61M16/04
p5
aVF16K5/02
p6
aVA61M25/01
p7
asVCPC
p8
(lp9
VA61M1/0064
p10
aVA61M16/0463
p11
aVF16K5/0207
p12
aVA61M1/0043
p13
aVA61M25/0111
p14
aVY10S128/912
p15
aVY10S128/908
p16
asS'Citations'
p17
I0
sVreferences
p18
I41
sVyear
p19
S'1998'
p20
sS'label'
p21
VUS5738091
p22
sVfamily lenght
p23
I31
sVpriority-active-indicator
p24
I1
sS'prior-Date'
p25
(lp26
V1995-06-07
p27
aV1993-12-03
p28
aV1992-10-19
p29
asVCitP
p30
(lp31
VUS2946156
p32
aVUS2956819
p33
aVUS3112748
p34
aVUS3517669
p35
aVUS3526249
p36
aVUS3577992
p37
aVUS3991762
p38
aVUS4240417
p39
aVUS4246899
p40
aVUS4351328
p41
aVUS4356823
p42
aVUS4468224
p43
aVUS4510933
p44
aVUS4638539
p45
aVUS4736732
p46
aVUS4751924
p47
aVUS4762125
p48
aVUS4796615
p49
aVUS4805611
p50
aVUS4832696
p51
aVUS4834710
p52
aVUS4838255
p53
aVUS4850350
p54
aVUS4979765
p55
aVUS5025806
p56
aVUS5029580
p57
aVUS5083561
p58
aVUS5088486
p59
aVUS5125893
p60
aVUS5134996
p61
aVUS5139018
p62
aVUS5215522
p63
aVUS5220916
p64
aVUS5234411
p65
aVUS5261416
p66
aVUS5309902
p67
aVUS5333607
p68
aVUS5343857
p69
aVEP0414997
p70
aVDE3042229
p71
aVGB2207736
p72
asS'prior-dateDate'
p73
(lp74
cdatetime
date
p75
(S'\x07\xcb\x06\x07'
tRp76
ag75
(S'\x07\xc9\x0c\x03'
tRp77
ag75
(S'\x07\xc8\n\x13'
tRp78
asS'IPCR11'
p79
(lp80
g5
ag6
ag7
asVCitO
p81
S''
sVdateDate
p82
g75
(S'\x07\xce\x04\x0e'
tRp83
sVinventor-nice
p84
(lp85
VKeeKok-Hiong
p86
aVSchneiderJamesG
p87
aVKollerNealG
p88
aVBrunoRobertH
p89
asS'equivalents'
p90
(lp91
VUS5738091
p92
aVUS5309902
p93
asS'CitedBy'
p94
S''
sVrepresentative
p95
I0
sS'Applicant-Country'
p96
VUS
p97
sVdate
p98
S'1998-04-14'
p99
sVinventor
p100
(lp101
VKEE KOK-HIONG
p102
aVSCHNEIDER JAMES G
p103
aVKOLLER NEAL G
p104
aVBRUNO ROBERT H
p105
asVkind
p106
VA
sS'Inventor-Country'
p107
VUS
p108
sVapplicant-nice
p109
VSherwoodMedicalCo
p110
sS'IPCR1'
p111
VA
sVcountry
p112
VUS
p113
sS'IPCR3'
p114
VA61
p115
sVapplicant
p116
VSHERWOOD MEDICAL CO
p117
sS'IPCR4'
p118
VA61M
p119
sS'IPCR7'
p120
(lp121
VA61M1
p122
aVA61M16
p123
aVF16K5
p124
aVA61M25
p125
asS'prior'
p126
VCA2134123
p127
sVtitle
p128
VSuction catheter connection arrangements with automatically operated valve
p129
sVapplication-ref
p130
F1
s.(dp1
Vclassification
p2
(lp3
VA61M1/00
p4
aVA61M16/04
p5
aVA61M16/20
p6
aVF16K5/02
p7
aVA61M15/00
p8
aVA61M25/01
p9
asVCPC
p10
(lp11
VA61M1/0064
p12
aVA61M16/0463
p13
aVF16K5/0207
p14
aVA61M1/0043
p15
aVA61M15/009
p16
aVA61M25/0111
p17
asS'Citations'
p18
I0
sVreferences
p19
(lp20
I11
aI0
aI0
asVyear
p21
(lp22
S'1994'
p23
aS'1993'
p24
ag24
asS'label'
p25
VWO9321981
p26
sVfamily lenght
p27
I31
sVpriority-active-indicator
p28
I4
sS'prior-Date'
p29
(lp30
V1992-04-24
p31
aV1992-10-19
p32
aV1992-10-19
p33
aV1992-10-19
p34
asVCitP
p35
(lp36
VUS3991762
p37
aVEP0414997
p38
aVFR2528707
p39
aVUS4850350
p40
aVUS4356823
p41
aVGB2207736
p42
aVUS3526249
p43
aVDE1912287
p44
aVDE3629857
p45
aVUS5083561
p46
aVUS5088486
p47
asS'prior-dateDate'
p48
(lp49
cdatetime
date
p50
(S'\x07\xc8\x04\x18'
tRp51
ag50
(S'\x07\xc8\n\x13'
tRp52
ag50
(S'\x07\xc8\n\x13'
tRp53
ag50
(S'\x07\xc8\n\x13'
tRp54
asS'IPCR11'
p55
(lp56
g9
aVA61M25/01
p57
asVCitO
p58
S''
sVdateDate
p59
(lp60
g50
(S'\x07\xca\x02\x03'
tRp61
ag50
(S'\x07\xc9\x0b\x0b'
tRp62
ag62
asVinventor-nice
p63
(lp64
VSchneiderJames
p65
aVKeeKok-Hiong
p66
aVKollerNealG
p67
aVBrunoRobertH
p68
asS'equivalents'
p69
(lp70
VJPH07508192
p71
aVJP2004008817
p72
aVJP2007111558
p73
aVAU4112293
p74
aVAU3521197
p75
aVAT197768T
p76
aVEP0637257
p77
aVMX9302387
p78
aVAU3521097
p79
aVAU678552B
p80
aVDE69329711T
p81
aVES2153380T
p82
aVBR9306287
p83
aVWO9321981
p84
asS'CitedBy'
p85
S''
sVrepresentative
p86
I1
sS'Applicant-Country'
p87
(lp88
VUS
p89
aVUS
p90
asVdate
p91
(lp92
S'1994-02-03'
p93
aS'1993-11-11'
p94
ag94
asVinventor
p95
(lp96
VSCHNEIDER JAMES
p97
aVKEE KOK-HIONG
p98
aVKOLLER NEAL G
p99
aVBRUNO ROBERT H
p100
asVkind
p101
(lp102
VA3
p103
aVA2
p104
ag104
asS'Inventor-Country'
p105
VUS
p106
sVapplicant-nice
p107
(lp108
VSherwoodMedicalCo
p109
aVSherwoodMedicalCo
p110
asS'IPCR1'
p111
(lp112
VA
aVA
asVcountry
p113
(lp114
VWO
p115
aVWO
p116
asS'IPCR3'
p117
(lp118
VA61
p119
aVA61
p120
asVapplicant
p121
(lp122
VSHERWOOD MEDICAL CO
p123
aVSHERWOOD MEDICAL CO
p124
asS'IPCR4'
p125
(lp126
VA61M
p127
aVA61M
p128
asS'IPCR7'
p129
(lp130
VA61M16
p131
aVF16K5
p132
aVA61M15
p133
aVA61M25
p134
asS'prior'
p135
VCA2134123
p136
sVtitle
p137
(lp138
VRESPIRATORY SUPPORT SYSTEM
p139
aVSYSTEME D'ASSISTANCE RESPIRATOIRE
p140
ag140
asVapplication-ref
p141
F1
s.(dp1
Vclassification
p2
(lp3
VA61M16/00
p4
aVA61M16/12
p5
aVA61M16/20
p6
aVA61M1/00
p7
aVA61M16/06
p8
aVA61M16/08
p9
asVCPC
p10
(lp11
VA61M16/0075
p12
aVA61M16/12
p13
aVA61M16/208
p14
aVA61M16/06
p15
aVA61M16/0816
p16
aVA61M2210/0625
p17
aVA61M1/0072
p18
aVA61M16/00
p19
aVA61M16/0075
p20
aVA61M16/12
p21
aVA61M16/208
p22
aVA61M16/06
p23
aVA61M16/0816
p24
aVA61M2210/0625
p25
aVA61M1/0072
p26
ag20
ag21
ag22
ag23
ag24
ag25
ag26
asS'Citations'
p27
I0
sVreferences
p28
I9
sVyear
p29
(lp30
S'2008'
p31
aS'2005'
p32
ag32
asS'label'
p33
VGB2407778
p34
sVfamily lenght
p35
I3
sVpriority-active-indicator
p36
I1
sS'prior-Date'
p37
(lp38
V2003-11-10
p39
aV2003-11-10
p40
asVCitP
p41
(lp42
VGB191424624
p43
aVGB1550720
p44
aVBE1006807
p45
aVDE2402192
p46
aVUS4870962
p47
aVUS4898167
p48
aVUS4934360
p49
aVUS5345929
p50
aVUS2003178025
p51
asS'prior-dateDate'
p52
(lp53
cdatetime
date
p54
(S'\x07\xd3\x0b\n'
tRp55
ag54
(S'\x07\xd3\x0b\n'
tRp56
asS'IPCR11'
p57
(lp58
g8
ag9
aVA61M16/06
p59
aVA61M16/08
p60
asVCitO
p61
S''
sVdateDate
p62
(lp63
g54
(S'\x07\xd8\x07\x1e'
tRp64
ag54
(S'\x07\xd5\x05\x0b'
tRp65
ag65
asVinventor-nice
p66
(lp67
VListerMartin
p68
aVListerMartin
p69
asS'equivalents'
p70
(lp71
VGB2407778
p72
aVGB2407778
p73
asS'CitedBy'
p74
S''
sVrepresentative
p75
I1
sS'Applicant-Country'
p76
(lp77
VGB
p78
aVGB
p79
asVdate
p80
(lp81
S'2008-07-30'
p82
aS'2005-05-11'
p83
ag83
asVinventor
p84
(lp85
VLISTER MARTIN
p86
aVLISTER MARTIN
p87
asVkind
p88
(lp89
VB
aVA
aVA
asS'Inventor-Country'
p90
(lp91
VGB
p92
aVGB
p93
asVapplicant-nice
p94
(lp95
VListerMartin
p96
aVListerMartin
p97
asS'IPCR1'
p98
(lp99
VA
aVA
asVcountry
p100
(lp101
VGB
p102
aVGB
p103
asS'IPCR3'
p104
(lp105
VA61
p106
aVA61
p107
asVapplicant
p108
(lp109
VLISTER MARTIN
p110
aVLISTER MARTIN
p111
asS'IPCR4'
p112
(lp113
VA61M
p114
aVA61M
p115
asS'IPCR7'
p116
(lp117
VA61M16
p118
aVA61M16
p119
asS'prior'
p120
VGB2407778
p121
sVtitle
p122
(lp123
VManual lung pump
p124
aVManual respirator with bellows
p125
ag125
asVapplication-ref
p126
F1
s.(dp1
Vclassification
p2
(lp3
VA61M1/18
p4
aVA61M16/00
p5
aVB01D69/08
p6
aVB01D71/38
p7
asVCPC
p8
V
sS'Citations'
p9
I0
sVreferences
p10
I0
sVyear
p11
S'2002'
p12
sS'label'
p13
VCN1377726
p14
sVfamily lenght
p15
I2
sVpriority-active-indicator
p16
I1
sS'prior-Date'
p17
V2002-01-11
p18
sVCitP
p19
S''
sS'prior-dateDate'
p20
cdatetime
date
p21
(S'\x07\xd2\x01\x0b'
tRp22
sS'IPCR11'
p23
(lp24
g4
ag6
ag7
asVCitO
p25
S''
sVdateDate
p26
g21
(S'\x07\xd2\x0b\x06'
tRp27
sVinventor-nice
p28
(lp29
VCuiFuzhai
p30
aVWangXiaohong
p31
aVFengQingling
p32
asS'equivalents'
p33
VCN1377726
p34
sS'CitedBy'
p35
S''
sVrepresentative
p36
I0
sS'Applicant-Country'
p37
VCN
p38
sVdate
p39
S'2002-11-06'
p40
sVinventor
p41
(lp42
VCUI FUZHAI
p43
aVWANG XIAOHONG
p44
aVFENG QINGLING
p45
asVkind
p46
VA
sS'Inventor-Country'
p47
VCN
p48
sVapplicant-nice
p49
VUnivTsinghua
p50
sS'IPCR1'
p51
VB
sVcountry
p52
VCN
p53
sS'IPCR3'
p54
VB01
p55
sVapplicant
p56
VUNIV TSINGHUA
p57
sS'IPCR4'
p58
VB01D
p59
sS'IPCR7'
p60
(lp61
VA61M1
p62
aVA61M16
p63
aVB01D69
p64
aVB01D71
p65
asS'prior'
p66
g14
sVtitle
p67
VProcess for preparing phenolic resin hollow fibre film for auxiliary respirator
p68
sVapplication-ref
p69
F1
s.(dp1
Vclassification
p2
(lp3
VA61M1/18
p4
aVA61M16/00
p5
aVB01D69/08
p6
aVB01D71/38
p7
asVCPC
p8
V
sS'Citations'
p9
I0
sVreferences
p10
I0
sVyear
p11
S'2004'
p12
sS'label'
p13
VCN1172741
p14
sVfamily lenght
p15
I2
sVpriority-active-indicator
p16
I1
sS'prior-Date'
p17
V2002-01-11
p18
sVCitP
p19
S''
sS'prior-dateDate'
p20
cdatetime
date
p21
(S'\x07\xd2\x01\x0b'
tRp22
sS'IPCR11'
p23
(lp24
g4
ag6
ag7
asVCitO
p25
S''
sVdateDate
p26
g21
(S'\x07\xd4\n\x1b'
tRp27
sVinventor-nice
p28
(lp29
VCuiFuzhai
p30
aVWangXiaohong
p31
aVFengQingling
p32
asS'equivalents'
p33
(lp34
VJPH09315215
p35
aVCA2206924
p36
aVDE19723045
p37
aVUS5909949
p38
aVCN1172741
p39
asS'CitedBy'
p40
S''
sVrepresentative
p41
I0
sS'Applicant-Country'
p42
VCN
p43
sVdate
p44
S'2004-10-27'
p45
sVinventor
p46
(lp47
VCUI FUZHAI
p48
aVWANG XIAOHONG
p49
aVFENG QINGLING
p50
asVkind
p51
VC
sS'Inventor-Country'
p52
VCN
p53
sVapplicant-nice
p54
VUnivTsinghua
p55
sS'IPCR1'
p56
VB
sVcountry
p57
VCN
p58
sS'IPCR3'
p59
VB01
p60
sVapplicant
p61
VUNIV TSINGHUA
p62
sS'IPCR4'
p63
VB01D
p64
sS'IPCR7'
p65
(lp66
VA61M1
p67
aVA61M16
p68
aVB01D69
p69
aVB01D71
p70
asS'prior'
p71
VCN1377726
p72
sVtitle
p73
VProcess for preparing phenolic resin hollow fibre film for auxiliary respirator
p74
sVapplication-ref
p75
F1
s.(dp1
Vclassification
p2
VA61M1/00
p3
sVCPC
p4
(lp5
VA61M1/0023
p6
aVA61M2205/8206
p7
asS'Citations'
p8
I0
sVreferences
p9
I0
sVyear
p10
S'1978'
p11
sS'label'
p12
VAU2363477
p13
sVfamily lenght
p14
I3
sVpriority-active-indicator
p15
I1
sS'prior-Date'
p16
V1977-03-25
p17
sVCitP
p18
S''
sS'prior-dateDate'
p19
cdatetime
date
p20
(S'\x07\xb9\x03\x19'
tRp21
sS'IPCR11'
p22
S''
sVCitO
p23
S''
sVdateDate
p24
g20
(S'\x07\xba\t\x1c'
tRp25
sVinventor-nice
p26
(lp27
S'HawkerMichaelJohn'
p28
aS'MillerRobert'
p29
asS'equivalents'
p30
(lp31
VAU506918B
p32
aVGB1506082
p33
aVAU2363477
p34
asS'CitedBy'
p35
S''
sVrepresentative
p36
I0
sS'Applicant-Country'
p37
S''
sVdate
p38
S'1978-09-28'
p39
sVinventor
p40
(lp41
VHAWKER MICHAEL JOHN
p42
aVMILLER ROBERT
p43
asVkind
p44
VA
sS'Inventor-Country'
p45
S''
sVapplicant-nice
p46
S'CommwIndGases'
p47
sS'IPCR1'
p48
VA
sVcountry
p49
VAU
p50
sS'IPCR3'
p51
VA61
p52
sVapplicant
p53
VCOMMW IND GASES
p54
sS'IPCR4'
p55
VA61M
p56
sS'IPCR7'
p57
VA61M1
p58
sS'prior'
p59
VGB1506082
p60
sVtitle
p61
VPORTABLE RESPIRATOR
p62
sVapplication-ref
p63
F1
s.(dp1
Vclassification
p2
VA61M1/00
p3
sVCPC
p4
(lp5
VA61M1/0023
p6
aVA61M2205/8206
p7
asS'Citations'
p8
I0
sVreferences
p9
I0
sVyear
p10
S'1980'
p11
sS'label'
p12
VAU506918
p13
sVfamily lenght
p14
I3
sVpriority-active-indicator
p15
I1
sS'prior-Date'
p16
V1977-03-25
p17
sVCitP
p18
S''
sS'prior-dateDate'
p19
cdatetime
date
p20
(S'\x07\xb9\x03\x19'
tRp21
sS'IPCR11'
p22
S''
sVCitO
p23
S''
sVdateDate
p24
g20
(S'\x07\xbc\x01\x1f'
tRp25
sVinventor-nice
p26
(lp27
S'HawkerMJ'
p28
aS'MillerR'
p29
asS'equivalents'
p30
S'empty'
p31
sS'CitedBy'
p32
S''
sVrepresentative
p33
I0
sS'Applicant-Country'
p34
S''
sVdate
p35
S'1980-01-31'
p36
sVinventor
p37
(lp38
VHAWKER M J
p39
aVMILLER R
p40
asVkind
p41
VB2
p42
sS'Inventor-Country'
p43
S''
sVapplicant-nice
p44
S'CommwIndGases'
p45
sS'IPCR1'
p46
VA
sVcountry
p47
VAU
p48
sS'IPCR3'
p49
VA61
p50
sVapplicant
p51
VCOMMW IND GASES
p52
sS'IPCR4'
p53
VA61M
p54
sS'IPCR7'
p55
VA61M1
p56
sS'prior'
p57
VGB1506082
p58
sVtitle
p59
VA PORTABLE ASPIRATOR
p60
sVapplication-ref
p61
F1
s.(dp1
Vclassification
p2
VA61M1/00
p3
sVCPC
p4
(lp5
VA61M1/0023
p6
aVA61M2205/8206
p7
asS'Citations'
p8
I0
sVreferences
p9
I0
sVyear
p10
S'1978'
p11
sS'label'
p12
VGB1506082
p13
sVfamily lenght
p14
I3
sVpriority-active-indicator
p15
I1
sS'prior-Date'
p16
V1977-03-25
p17
sVCitP
p18
S''
sS'prior-dateDate'
p19
cdatetime
date
p20
(S'\x07\xb9\x03\x19'
tRp21
sS'IPCR11'
p22
S''
sVCitO
p23
S''
sVdateDate
p24
g20
(S'\x07\xba\x04\x05'
tRp25
sVinventor-nice
p26
S'Empty'
p27
sS'equivalents'
p28
(lp29
VAU506918B
p30
aVGB1506082
p31
aVAU2363477
p32
asS'CitedBy'
p33
S''
sVrepresentative
p34
I1
sS'Applicant-Country'
p35
S''
sVdate
p36
S'1978-04-05'
p37
sVinventor
p38
Vempty
p39
sVkind
p40
VA
sS'Inventor-Country'
p41
S''
sVapplicant-nice
p42
S'BocInternationalLtd'
p43
sS'IPCR1'
p44
VA
sVcountry
p45
VGB
p46
sS'IPCR3'
p47
VA61
p48
sVapplicant
p49
VBOC INTERNATIONAL LTD
p50
sS'IPCR4'
p51
VA61M
p52
sS'IPCR7'
p53
VA61M1
p54
sS'prior'
p55
g13
sVtitle
p56
VPORTABLE ASPIRATOR
p57
sVapplication-ref
p58
F1
s.