(dp1
Vclassification
p2
(lp3
VA61M16/00
p4
aVA61M1/00
p5
asVCPC
p6
(lp7
V
asS'Citations'
p8
I0
sVreferences
p9
I0
sVyear
p10
(lp11
S'2015'
p12
asS'label'
p13
VCN204671687
p14
sVpriority-active-indicator
p15
I0
sS'prior-Date'
p16
(lp17
V2015-05-07
p18
asVCitP
p19
S''
sS'prior-dateDate'
p20
(lp21
cdatetime
date
p22
(S'\x07\xdf\x05\x07'
tRp23
asS'IPCR11'
p24
(lp25
S''
asVCitO
p26
S''
sVdateDate
p27
g22
(S'\x07\xdf\t\x1e'
tRp28
sVinventor-nice
p29
(lp30
S'LiuYuhao'
p31
asS'equivalents'
p32
(lp33
VCN204671687U
p34
asS'CitedBy'
p35
(lp36
sVrepresentative
p37
I0
sS'Applicant-Country'
p38
S''
sVdate
p39
(lp40
S'2015-09-30'
p41
asVinventor
p42
(lp43
VLIU YUHAO
p44
asVkind
p45
VU
sS'Inventor-Country'
p46
S''
sVapplicant-nice
p47
(lp48
S'QingdaoMunicipalHospital'
p49
asS'IPCR1'
p50
(lp51
VA
asVcountry
p52
(lp53
VCN
p54
asS'IPCR3'
p55
(lp56
VA61
p57
asVapplicant
p58
(lp59
VQINGDAO MUNICIPAL HOSPITAL
p60
asS'IPCR4'
p61
(lp62
VA61M
p63
asS'IPCR7'
p64
(lp65
VA61M16
p66
aVA61M1
p67
asVtitle
p68
VIntracardiac respirator for branch of academic or vocational study
p69
sVapplication-ref
p70
F1
s.(dp1
Vclassification
p2
(lp3
VA61M16/00
p4
aVA61M1/00
p5
asVCPC
p6
(lp7
V
asS'Citations'
p8
I0
sVreferences
p9
I0
sVyear
p10
(lp11
S'2015'
p12
asS'label'
p13
VCN204501985
p14
sVpriority-active-indicator
p15
I0
sS'prior-Date'
p16
(lp17
V2015-02-27
p18
asVCitP
p19
S''
sS'prior-dateDate'
p20
(lp21
cdatetime
date
p22
(S'\x07\xdf\x02\x1b'
tRp23
asS'IPCR11'
p24
(lp25
S''
asVCitO
p26
S''
sVdateDate
p27
g22
(S'\x07\xdf\x07\x1d'
tRp28
sVinventor-nice
p29
(lp30
S'YouJiaping'
p31
aS'HuZishui'
p32
aS'RenGuanggan'
p33
aS'MaBencun'
p34
aS'HeJunxiu'
p35
asS'equivalents'
p36
(lp37
VCN204501985U
p38
asS'CitedBy'
p39
(lp40
sVrepresentative
p41
I0
sS'Applicant-Country'
p42
S''
sVdate
p43
(lp44
S'2015-07-29'
p45
asVinventor
p46
(lp47
VYOU JIAPING
p48
aVHU ZISHUI
p49
aVREN GUANGGAN
p50
aVMA BENCUN
p51
aVHE JUNXIU
p52
asVkind
p53
VU
sS'Inventor-Country'
p54
S''
sVapplicant-nice
p55
(lp56
S'YouJiaping'
p57
asS'IPCR1'
p58
(lp59
VA
asVcountry
p60
(lp61
VCN
p62
asS'IPCR3'
p63
(lp64
VA61
p65
asVapplicant
p66
(lp67
VYOU JIAPING
p68
asS'IPCR4'
p69
(lp70
VA61M
p71
asS'IPCR7'
p72
(lp73
VA61M16
p74
aVA61M1
p75
asVtitle
p76
VInhale phlegm formula respirator
p77
sVapplication-ref
p78
F1
s.(dp1
Vclassification
p2
(lp3
VA61M16/00
p4
aVA61M1/00
p5
asVCPC
p6
(lp7
V
asS'Citations'
p8
I0
sVreferences
p9
I0
sVyear
p10
(lp11
S'2015'
p12
asS'label'
p13
VCN204446856
p14
sVpriority-active-indicator
p15
I0
sS'prior-Date'
p16
(lp17
V2015-01-15
p18
asVCitP
p19
S''
sS'prior-dateDate'
p20
(lp21
cdatetime
date
p22
(S'\x07\xdf\x01\x0f'
tRp23
asS'IPCR11'
p24
(lp25
S''
asVCitO
p26
S''
sVdateDate
p27
g22
(S'\x07\xdf\x07\x08'
tRp28
sVinventor-nice
p29
(lp30
S'GaoLinben'
p31
asS'equivalents'
p32
(lp33
VCN204446856U
p34
asS'CitedBy'
p35
(lp36
sVrepresentative
p37
I0
sS'Applicant-Country'
p38
S''
sVdate
p39
(lp40
S'2015-07-08'
p41
asVinventor
p42
(lp43
VGAO LINBEN
p44
asVkind
p45
VU
sS'Inventor-Country'
p46
S''
sVapplicant-nice
p47
(lp48
S'GaoLinben'
p49
asS'IPCR1'
p50
(lp51
VA
asVcountry
p52
(lp53
VCN
p54
asS'IPCR3'
p55
(lp56
VA61
p57
asVapplicant
p58
(lp59
VGAO LINBEN
p60
asS'IPCR4'
p61
(lp62
VA61M
p63
asS'IPCR7'
p64
(lp65
VA61M16
p66
aVA61M1
p67
asVtitle
p68
VIntelligent artificial respirator
p69
sVapplication-ref
p70
F1
s.(dp1
Vclassification
p2
(lp3
VA61M16/00
p4
aVA61B5/02
p5
aVA61M1/00
p6
asVCPC
p7
(lp8
V
asS'Citations'
p9
I0
sVreferences
p10
I0
sVyear
p11
(lp12
S'2015'
p13
asS'label'
p14
VCN204092769
p15
sVpriority-active-indicator
p16
I0
sS'prior-Date'
p17
(lp18
V2014-09-30
p19
asVCitP
p20
S''
sS'prior-dateDate'
p21
(lp22
cdatetime
date
p23
(S'\x07\xde\t\x1e'
tRp24
asS'IPCR11'
p25
(lp26
S''
asVCitO
p27
S''
sVdateDate
p28
g23
(S'\x07\xdf\x01\x0e'
tRp29
sVinventor-nice
p30
(lp31
S'ShiYumei'
p32
aS'ZhengHongyan'
p33
asS'equivalents'
p34
(lp35
VCN204092769U
p36
asS'CitedBy'
p37
(lp38
sVrepresentative
p39
I0
sS'Applicant-Country'
p40
S''
sVdate
p41
(lp42
S'2015-01-14'
p43
asVinventor
p44
(lp45
VSHI YUMEI
p46
aVZHENG HONGYAN
p47
asVkind
p48
VU
sS'Inventor-Country'
p49
S''
sVapplicant-nice
p50
(lp51
S'ShiYumei'
p52
asS'IPCR1'
p53
(lp54
VA
asVcountry
p55
(lp56
VCN
p57
asS'IPCR3'
p58
(lp59
VA61
p60
asVapplicant
p61
(lp62
VSHI YUMEI
p63
asS'IPCR4'
p64
(lp65
VA61M
p66
asS'IPCR7'
p67
(lp68
VA61M16
p69
aVA61B5
p70
aVA61M1
p71
asVtitle
p72
VSimple artificial respirator
p73
sVapplication-ref
p74
F1
s.(dp1
Vclassification
p2
(lp3
VA61M16/00
p4
aVA61M1/00
p5
asVCPC
p6
(lp7
V
asS'Citations'
p8
I0
sVreferences
p9
I0
sVyear
p10
(lp11
S'2014'
p12
asS'label'
p13
VCN203898874
p14
sVpriority-active-indicator
p15
I0
sS'prior-Date'
p16
(lp17
V2014-04-30
p18
asVCitP
p19
S''
sS'prior-dateDate'
p20
(lp21
cdatetime
date
p22
(S'\x07\xde\x04\x1e'
tRp23
asS'IPCR11'
p24
(lp25
S''
asVCitO
p26
S''
sVdateDate
p27
g22
(S'\x07\xde\n\x1d'
tRp28
sVinventor-nice
p29
(lp30
S'HuangWeili'
p31
asS'equivalents'
p32
(lp33
VCN203898874U
p34
asS'CitedBy'
p35
(lp36
sVrepresentative
p37
I0
sS'Applicant-Country'
p38
S''
sVdate
p39
(lp40
S'2014-10-29'
p41
asVinventor
p42
(lp43
VHUANG WEILI
p44
asVkind
p45
VU
sS'Inventor-Country'
p46
S''
sVapplicant-nice
p47
(lp48
S'HuangWeili'
p49
asS'IPCR1'
p50
(lp51
VA
asVcountry
p52
(lp53
VCN
p54
asS'IPCR3'
p55
(lp56
VA61
p57
asVapplicant
p58
(lp59
VHUANG WEILI
p60
asS'IPCR4'
p61
(lp62
VA61M
p63
asS'IPCR7'
p64
(lp65
VA61M16
p66
aVA61M1
p67
asVtitle
p68
VExpectoration amount monitoring alarm device for respirator
p69
sVapplication-ref
p70
F1
s.(dp1
Vclassification
p2
(lp3
VA61M16/22
p4
aVA61M1/00
p5
asVCPC
p6
(lp7
V
asS'Citations'
p8
I0
sVreferences
p9
I0
sVyear
p10
(lp11
S'2013'
p12
asS'label'
p13
VCN203263989
p14
sVpriority-active-indicator
p15
I0
sS'prior-Date'
p16
(lp17
V2013-05-20
p18
asVCitP
p19
S''
sS'prior-dateDate'
p20
(lp21
cdatetime
date
p22
(S'\x07\xdd\x05\x14'
tRp23
asS'IPCR11'
p24
(lp25
g4
aS''
asVCitO
p26
S''
sVdateDate
p27
g22
(S'\x07\xdd\x0b\x06'
tRp28
sVinventor-nice
p29
(lp30
S'FangLin'
p31
asS'equivalents'
p32
(lp33
VCN203263989U
p34
asS'CitedBy'
p35
(lp36
sVrepresentative
p37
I0
sS'Applicant-Country'
p38
S''
sVdate
p39
(lp40
S'2013-11-06'
p41
asVinventor
p42
(lp43
VFANG LIN
p44
asVkind
p45
VU
sS'Inventor-Country'
p46
S''
sVapplicant-nice
p47
(lp48
S'FangLin'
p49
asS'IPCR1'
p50
(lp51
VA
asVcountry
p52
(lp53
VCN
p54
asS'IPCR3'
p55
(lp56
VA61
p57
asVapplicant
p58
(lp59
VFANG LIN
p60
asS'IPCR4'
p61
(lp62
VA61M
p63
asS'IPCR7'
p64
(lp65
VA61M16
p66
aVA61M1
p67
asVtitle
p68
VExtension pipe of oxygen bag type respirator
p69
sVapplication-ref
p70
F1
s.(dp1
Vclassification
p2
(lp3
VA61M16/00
p4
aVA61M1/00
p5
asVCPC
p6
(lp7
V
asS'Citations'
p8
I0
sVreferences
p9
I0
sVyear
p10
(lp11
S'2013'
p12
asS'label'
p13
VCN203123227
p14
sVpriority-active-indicator
p15
I0
sS'prior-Date'
p16
(lp17
V2013-01-11
p18
asVCitP
p19
S''
sS'prior-dateDate'
p20
(lp21
cdatetime
date
p22
(S'\x07\xdd\x01\x0b'
tRp23
asS'IPCR11'
p24
(lp25
S''
asVCitO
p26
S''
sVdateDate
p27
g22
(S'\x07\xdd\x08\x0e'
tRp28
sVinventor-nice
p29
(lp30
S'ShiYan'
p31
aS'CaiMaolin'
p32
aS'XuWeiqing'
p33
asS'equivalents'
p34
(lp35
VCN203123227U
p36
asS'CitedBy'
p37
(lp38
sVrepresentative
p39
I0
sS'Applicant-Country'
p40
S''
sVdate
p41
(lp42
S'2013-08-14'
p43
asVinventor
p44
(lp45
VSHI YAN
p46
aVCAI MAOLIN
p47
aVXU WEIQING
p48
asVkind
p49
VU
sS'Inventor-Country'
p50
S''
sVapplicant-nice
p51
(lp52
S'UnivBeihang'
p53
asS'IPCR1'
p54
(lp55
VA
asVcountry
p56
(lp57
VCN
p58
asS'IPCR3'
p59
(lp60
VA61
p61
asVapplicant
p62
(lp63
VUNIV BEIHANG
p64
asS'IPCR4'
p65
(lp66
VA61M
p67
asS'IPCR7'
p68
(lp69
VA61M16
p70
aVA61M1
p71
asVtitle
p72
VRespirator with sputum excretion function
p73
sVapplication-ref
p74
F1
s.(dp1
Vclassification
p2
(lp3
VA61M16/00
p4
aVA61M1/00
p5
asVCPC
p6
(lp7
V
asS'Citations'
p8
I0
sVreferences
p9
I0
sVyear
p10
(lp11
S'2013'
p12
asS'label'
p13
VCN202859823
p14
sVpriority-active-indicator
p15
I0
sS'prior-Date'
p16
(lp17
V2012-06-08
p18
asVCitP
p19
S''
sS'prior-dateDate'
p20
(lp21
cdatetime
date
p22
(S'\x07\xdc\x06\x08'
tRp23
asS'IPCR11'
p24
(lp25
S''
asVCitO
p26
S''
sVdateDate
p27
g22
(S'\x07\xdd\x04\n'
tRp28
sVinventor-nice
p29
(lp30
S'WangJiasong'
p31
asS'equivalents'
p32
(lp33
VCN202859823U
p34
asS'CitedBy'
p35
(lp36
sVrepresentative
p37
I0
sS'Applicant-Country'
p38
S''
sVdate
p39
(lp40
S'2013-04-10'
p41
asVinventor
p42
(lp43
VWANG JIASONG
p44
asVkind
p45
VU
sS'Inventor-Country'
p46
S''
sVapplicant-nice
p47
(lp48
S'WangJiasong'
p49
asS'IPCR1'
p50
(lp51
VA
asVcountry
p52
(lp53
VCN
p54
asS'IPCR3'
p55
(lp56
VA61
p57
asVapplicant
p58
(lp59
VWANG JIASONG
p60
asS'IPCR4'
p61
(lp62
VA61M
p63
asS'IPCR7'
p64
(lp65
VA61M16
p66
aVA61M1
p67
asVtitle
p68
VMultifunctional laryngeal respirator
p69
sVapplication-ref
p70
F1
s.(dp1
Vclassification
p2
(lp3
VA61M16/00
p4
aVA61M1/00
p5
asVCPC
p6
(lp7
V
asS'Citations'
p8
I0
sVreferences
p9
I0
sVyear
p10
(lp11
S'2012'
p12
asS'label'
p13
VCN202538100
p14
sVpriority-active-indicator
p15
I0
sS'prior-Date'
p16
(lp17
V2012-03-08
p18
asVCitP
p19
S''
sS'prior-dateDate'
p20
(lp21
cdatetime
date
p22
(S'\x07\xdc\x03\x08'
tRp23
asS'IPCR11'
p24
(lp25
S''
asVCitO
p26
S''
sVdateDate
p27
g22
(S'\x07\xdc\x0b\x15'
tRp28
sVinventor-nice
p29
(lp30
S'XinbenWang'
p31
aS'XinchunZhou'
p32
aS'XiulianXun'
p33
asS'equivalents'
p34
(lp35
VCN202538100U
p36
asS'CitedBy'
p37
(lp38
sVrepresentative
p39
I0
sS'Applicant-Country'
p40
S''
sVdate
p41
(lp42
S'2012-11-21'
p43
asVinventor
p44
(lp45
VXINBEN WANG
p46
aVXINCHUN ZHOU
p47
aVXIULIAN XUN
p48
asVkind
p49
VU
sS'Inventor-Country'
p50
S''
sVapplicant-nice
p51
(lp52
S'XinbenWang'
p53
asS'IPCR1'
p54
(lp55
VA
asVcountry
p56
(lp57
VCN
p58
asS'IPCR3'
p59
(lp60
VA61
p61
asVapplicant
p62
(lp63
VXINBEN WANG
p64
asS'IPCR4'
p65
(lp66
VA61M
p67
asS'IPCR7'
p68
(lp69
VA61M16
p70
aVA61M1
p71
asVtitle
p72
VArtificial respirator with sputum aspiration function
p73
sVapplication-ref
p74
F1
s.(dp1
Vclassification
p2
(lp3
VA61H31/02
p4
aVA61M1/00
p5
asVCPC
p6
(lp7
V
asS'Citations'
p8
I0
sVreferences
p9
I0
sVyear
p10
(lp11
S'2010'
p12
asS'label'
p13
VCN101756782
p14
sVpriority-active-indicator
p15
I0
sS'prior-Date'
p16
(lp17
V2009-09-25
p18
asVCitP
p19
S''
sS'prior-dateDate'
p20
(lp21
cdatetime
date
p22
(S'\x07\xd9\t\x19'
tRp23
asS'IPCR11'
p24
(lp25
g4
aS''
asVCitO
p26
S''
sVdateDate
p27
g22
(S'\x07\xda\x06\x1e'
tRp28
sVinventor-nice
p29
(lp30
S'FuxuYang'
p31
asS'equivalents'
p32
(lp33
VCN101756782
p34
asS'CitedBy'
p35
(lp36
sVrepresentative
p37
I0
sS'Applicant-Country'
p38
S''
sVdate
p39
(lp40
S'2010-06-30'
p41
asVinventor
p42
(lp43
VFUXU YANG
p44
asVkind
p45
VA
sS'Inventor-Country'
p46
S''
sVapplicant-nice
p47
(lp48
S'FuxuYang'
p49
asS'IPCR1'
p50
(lp51
VA
asVcountry
p52
(lp53
VCN
p54
asS'IPCR3'
p55
(lp56
VA61
p57
asVapplicant
p58
(lp59
VFUXU YANG
p60
asS'IPCR4'
p61
(lp62
VA61H
p63
aVA61M
p64
asS'IPCR7'
p65
(lp66
VA61H31
p67
aVA61M1
p68
asVtitle
p69
VManual respirator
p70
sVapplication-ref
p71
F1
s.(dp1
Vclassification
p2
(lp3
VA61M1/00
p4
aVA61M16/00
p5
asVCPC
p6
(lp7
V
asS'Citations'
p8
I0
sVreferences
p9
I0
sVyear
p10
(lp11
S'2009'
p12
asS'label'
p13
VCN201290920
p14
sVpriority-active-indicator
p15
I0
sS'prior-Date'
p16
(lp17
V2008-10-29
p18
asVCitP
p19
S''
sS'prior-dateDate'
p20
(lp21
cdatetime
date
p22
(S'\x07\xd8\n\x1d'
tRp23
asS'IPCR11'
p24
(lp25
S''
asVCitO
p26
S''
sVdateDate
p27
g22
(S'\x07\xd9\x08\x13'
tRp28
sVinventor-nice
p29
(lp30
VYingxinHu
p31
asS'equivalents'
p32
(lp33
VCN201290920Y
p34
asS'CitedBy'
p35
(lp36
sVrepresentative
p37
I0
sS'Applicant-Country'
p38
(lp39
VCN
p40
asVdate
p41
(lp42
S'2009-08-19'
p43
asVinventor
p44
(lp45
VYINGXIN HU
p46
asVkind
p47
VY
sS'Inventor-Country'
p48
(lp49
VCN
p50
asVapplicant-nice
p51
(lp52
VYingxinHu
p53
asS'IPCR1'
p54
(lp55
VA
asVcountry
p56
(lp57
VCN
p58
asS'IPCR3'
p59
(lp60
VA61
p61
asVapplicant
p62
(lp63
VYINGXIN HU
p64
asS'IPCR4'
p65
(lp66
VA61M
p67
asS'IPCR7'
p68
(lp69
VA61M1
p70
aVA61M16
p71
asVtitle
p72
VPhlegm-suction respirator respiration alternative control device
p73
sVapplication-ref
p74
F1
s.(dp1
Vclassification
p2
(lp3
VA61B17/24
p4
aVA61B17/50
p5
asVCPC
p6
(lp7
VA61B17/24
p8
aVA61B17/50
p9
aNaNaNaNaNasS'Citations'
p10
I11
sVreferences
p11
I5
sVyear
p12
(lp13
S'1976'
p14
asS'label'
p15
VUS3946736
p16
sVpriority-active-indicator
p17
I0
sS'prior-Date'
p18
(lp19
V1974-10-18
p20
asVCitP
p21
(lp22
VUS2756742
p23
aVUS3050062
p24
aVUS3543751
p25
aVUS3730179
p26
aVUS3809079
p27
asS'prior-dateDate'
p28
(lp29
cdatetime
date
p30
(S'\x07\xb6\n\x12'
tRp31
asS'IPCR11'
p32
(lp33
g4
ag5
asVCitO
p34
(lp35
sVdateDate
p36
g30
(S'\x07\xb8\x03\x1e'
tRp37
sVinventor-nice
p38
(lp39
S'NewardTheodoreC'
p40
asS'equivalents'
p41
(lp42
VUS3946736
p43
asS'CitedBy'
p44
(lp45
VUS2014163325
p46
aVWO2012091949
p47
aVWO2011084133
p48
aVUS2009228018
p49
aVUS2005065411
p50
aVUS6478770
p51
aVUS4196724
p52
aVUS5782837
p53
aVUS5013320
p54
aVWO9902203
p55
aVUS5373859
p56
asVrepresentative
p57
I0
sS'Applicant-Country'
p58
S''
sVdate
p59
(lp60
S'1976-03-30'
p61
asVinventor
p62
(lp63
VNEWARD THEODORE C
p64
asVkind
p65
VA
sS'Inventor-Country'
p66
S''
sVapplicant-nice
p67
(lp68
S'NewardTheodoreC'
p69
asS'IPCR1'
p70
(lp71
VA
asVcountry
p72
(lp73
VUS
p74
asS'IPCR3'
p75
(lp76
VA61
p77
asVapplicant
p78
(lp79
VNEWARD THEODORE C
p80
asS'IPCR4'
p81
(lp82
VA61B
p83
asS'IPCR7'
p84
(lp85
VA61B17
p86
asVtitle
p87
VRESPIRATOR ASSIST DEVICE
p88
sVapplication-ref
p89
F1
s.(dp1
Vclassification
p2
(lp3
VA61M1/00
p4
aVA61M16/04
p5
aVA61M16/20
p6
asVCPC
p7
(lp8
VA61M1/0031
p9
aVA61M16/0463
p10
aVA61M16/202
p11
aVA61M16/0465
p12
aNaNaNaNaNaNaNasS'Citations'
p13
I2
sVreferences
p14
I26
sVyear
p15
(lp16
S'2004'
p17
asS'label'
p18
VUS2004107967
p19
sVpriority-active-indicator
p20
I0
sS'prior-Date'
p21
(lp22
V2001-03-14
p23
aV2002-03-14
p24
asVCitP
p25
(lp26
VUS2967525
p27
aVUS4981466
p28
aVUS2972345
p29
aVUS3234932
p30
aVUS4805611
p31
aVUS3719197
p32
aVUS5400778
p33
aVUS6550475
p34
aVUS5315992
p35
aVUS5419314
p36
aVUS6568388
p37
aVUS4456008
p38
aVUS4751924
p39
aVUS5322057
p40
aVUS3682166
p41
aVUS5661336
p42
aVUS6102042
p43
aVUS4351328
p44
aVUS4867153
p45
aVUS5345928
p46
aVUS5676133
p47
aVUS6298848
p48
aVUS3991762
p49
aVUS4233984
p50
aVUS5269035
p51
aVUS5582167
p52
asS'prior-dateDate'
p53
(lp54
cdatetime
date
p55
(S'\x07\xd1\x03\x0e'
tRp56
ag55
(S'\x07\xd2\x03\x0e'
tRp57
asS'IPCR11'
p58
(lp59
S''
ag5
ag6
asVCitO
p60
(lp61
sVdateDate
p62
g55
(S'\x07\xd4\x06\n'
tRp63
sVinventor-nice
p64
(lp65
VFlodinBjorn
p66
asS'equivalents'
p67
(lp68
VUS2004107967
p69
aVSE522948
p70
aVWO02072184
p71
asS'CitedBy'
p72
(lp73
VJP2014068690
p74
aVUS2008245366
p75
asVrepresentative
p76
I0
sS'Applicant-Country'
p77
S''
sVdate
p78
(lp79
S'2004-06-10'
p80
asVinventor
p81
(lp82
VFLODIN BJORN
p83
asVkind
p84
VA1
p85
sS'Inventor-Country'
p86
(lp87
VSE
p88
asVapplicant-nice
p89
(lp90
S'Empty'
p91
asS'IPCR1'
p92
(lp93
VA
asVcountry
p94
(lp95
VUS
p96
asS'IPCR3'
p97
(lp98
VA61
p99
asVapplicant
p100
(lp101
Vempty
p102
asS'IPCR4'
p103
(lp104
VA61M
p105
asS'IPCR7'
p106
(lp107
VA61M16
p108
asVtitle
p109
VDevice for a respirator
p110
sVapplication-ref
p111
F1
s.(dp1
Vclassification
p2
(lp3
VA61M1/00
p4
aVA61M16/00
p5
asVCPC
p6
(lp7
VA61M1/0066
p8
aVA61M16/0057
p9
aNaNasS'Citations'
p10
I5
sVreferences
p11
I7
sVyear
p12
(lp13
S'1967'
p14
asS'label'
p15
VUS3323521
p16
sVpriority-active-indicator
p17
I0
sS'prior-Date'
p18
(lp19
V1962-10-31
p20
asVCitP
p21
(lp22
VUS2383181
p23
aVUS2737177
p24
aVUS3105488
p25
aVUS3106204
p26
aVUS3115138
p27
aVUS3185147
p28
aVFR1237217
p29
asS'prior-dateDate'
p30
(lp31
cdatetime
date
p32
(S'\x07\xaa\n\x1f'
tRp33
asS'IPCR11'
p34
(lp35
S''
asVCitO
p36
(lp37
sVdateDate
p38
g32
(S'\x07\xaf\x06\x06'
tRp39
sVinventor-nice
p40
(lp41
S'YehudaIsk'
p42
asS'equivalents'
p43
(lp44
VUS3323521
p45
asS'CitedBy'
p46
(lp47
VDE102014223396
p48
aVUS5313938
p49
aVUS3515135
p50
aVFR2601594
p51
aVEP0310613
p52
asVrepresentative
p53
I0
sS'Applicant-Country'
p54
S''
sVdate
p55
(lp56
S'1967-06-06'
p57
asVinventor
p58
(lp59
VYEHUDA ISK
p60
asVkind
p61
VA
sS'Inventor-Country'
p62
S''
sVapplicant-nice
p63
(lp64
S'Empty'
p65
asS'IPCR1'
p66
(lp67
VA
asVcountry
p68
(lp69
VUS
p70
asS'IPCR3'
p71
(lp72
VA61
p73
asVapplicant
p74
(lp75
Vempty
p76
asS'IPCR4'
p77
(lp78
VA61M
p79
asS'IPCR7'
p80
(lp81
VA61M1
p82
aVA61M16
p83
asVtitle
p84
VRespirator
p85
sVapplication-ref
p86
F1
s.(dp1
Vclassification
p2
(lp3
VA61M1/00
p4
aVA61M16/04
p5
aVF16K5/02
p6
aVA61M25/01
p7
asVCPC
p8
(lp9
VA61M1/0064
p10
aVA61M16/0463
p11
aVF16K5/0207
p12
aVA61M1/0043
p13
aVA61M25/0111
p14
aVY10S128/912
p15
aNaNaNaNaNasS'Citations'
p16
I151
sVreferences
p17
I42
sVyear
p18
(lp19
S'1994'
p20
asS'label'
p21
VUS5333606
p22
sVpriority-active-indicator
p23
I0
sS'prior-Date'
p24
(lp25
V1993-06-23
p26
aV1992-04-24
p27
asVCitP
p28
(lp29
VUS1588336
p30
aVUS1952451
p31
aVUS3292442
p32
aVUS3825001
p33
aVUS3991762
p34
aVUS4240417
p35
aVUS4346702
p36
aVUS4351328
p37
aVUS4426062
p38
aVUS4475548
p39
aVUS4510933
p40
aVUS4621633
p41
aVUS4691702
p42
aVUS4696296
p43
aVUS4751924
p44
aVUS4781702
p45
aVUS4796615
p46
aVUS4805611
p47
aVUS4825859
p48
aVUS4834710
p49
aVUS4836199
p50
aVUS4850350
p51
aVUS4857062
p52
aVUS4938210
p53
aVUS4951661
p54
aVUS4967743
p55
aVUS5009391
p56
aVUS5025806
p57
aVUS5029580
p58
aVUS5053014
p59
aVUS5057093
p60
aVUS5065754
p61
aVUS5073164
p62
aVUS5078131
p63
aVUS5083561
p64
aVUS5088486
p65
aVUS5134996
p66
aVUS5140983
p67
aVUS5158569
p68
aVEP0414997
p69
aVCH417265
p70
aVGB2029703
p71
asS'prior-dateDate'
p72
(lp73
cdatetime
date
p74
(S'\x07\xc9\x06\x17'
tRp75
ag74
(S'\x07\xc8\x04\x18'
tRp76
asS'IPCR11'
p77
(lp78
S''
ag5
ag6
ag7
asVCitO
p79
(lp80
sVdateDate
p81
g74
(S'\x07\xca\x08\x02'
tRp82
sVinventor-nice
p83
(lp84
VSchneiderJames
p85
aVKeeKok-Hiong
p86
asS'equivalents'
p87
(lp88
VUS5333606
p89
aVUS5343857
p90
asS'CitedBy'
p91
(lp92
VUS2015090265
p93
aVWO2014144054
p94
aVUS2014251328
p95
aVUS2014182590
p96
aVUS2014123979
p97
aVUS2014121553
p98
aVUS2014041656
p99
aVUS2014034056
p100
aVUS2014034054
p101
aVUS2013338514
p102
aVUS2013333697
p103
aVUS2013284177
p104
aVUS2013284173
p105
aVUS2013283197
p106
aVUS2013276788
p107
aVUS2013255682
p108
aVUS2013239967
p109
aVUS2013233319
p110
aVUS2013233314
p111
aVUS2013192599
p112
aVUS2013186401
p113
aVUS2013186400
p114
aVUS2013186397
p115
aVUS2013160770
p116
aVUS2013159912
p117
aVUS2013152923
p118
aVUS2013152923
p119
aVUS2013104896
p120
aVUS2013047983
p121
aVUS2013008443
p122
aVUS2012304997
p123
aVUS2012279501
p124
aVUS2012272960
p125
aVUS2012247471
p126
aVUS2012226444
p127
aVUS2012216810
p128
aVUS2012211008
p129
aVUS2012197580
p130
aVUS2012197578
p131
aVUS2012152256
p132
aVJP2008534098
p133
aVUS2012137250
p134
aVUS2012137249
p135
aVUS2012133519
p136
aVUS2012071729
p137
aVUS2012030611
p138
aVUS2012029317
p139
aVUS2012000470
p140
aVUS2012000469
p141
aVUS2012000468
p142
aVUS2012000467
p143
aVUS2011273299
p144
aVUS2011273299
p145
aVUS2011265024
p146
aVUS2011259333
p147
aVUS2011259332
p148
aVUS2011249006
p149
aVUS2011230780
p150
aVUS2011209704
p151
aVUS2011196251
p152
aVUS2011192401
p153
aVUS2011175728
p154
aVUS2011154241
p155
aVUS2011138315
p156
aVUS2011138308
p157
aVUS2011133936
p158
aVUS2011132367
p159
aVUS2011132366
p160
aVUS2011132365
p161
aVUS2011132364
p162
aVUS2011132362
p163
aVUS2011132361
p164
aVUS2011128008
p165
aVUS2011126837
p166
aVUS2011126836
p167
aVUS2011126835
p168
aVUS2011126834
p169
aVUS2011126829
p170
aVUS2011126829
p171
aVUS2011087162
p172
aVUS2011041850
p173
aVUS2011011400
p174
aVUS2010288282
p175
aVUS2010282259
p176
aVUS2010249549
p177
aVUS2010236555
p178
aVUS2010218767
p179
aVUS2010218765
p180
aVWO2011020985
p181
aVUS2010186744
p182
aVUS2010147312
p183
aVUS2010147310
p184
aVUS2010147303
p185
aVUS2010147296
p186
aVUS2010081955
p187
aVUS2010081119
p188
aVUS2010078017
p189
aVUS2010071697
p190
aVUS2010071689
p191
aVUS2010069761
p192
aVUS2010059057
p193
aVUS2010051029
p194
aVUS2010018536
p195
aVUS2009301491
p196
aVUS2009301491
p197
aVUS2009301490
p198
aVUS2009301487
p199
aVUS2009301486
p200
aVGB2473826
p201
aVWO2010052241
p202
aVUS2009247891
p203
aVUS2009247848
p204
aVUS2009241962
p205
aVUS2009241958
p206
aVEA200701848
p207
aVAU2007313290
p208
aVUS7473219
p209
aVEP2081619
p210
aVWO2008048535
p211
aVUS6457472
p212
aVUS6029666
p213
aVUS2001054423
p214
aVUS2005199243
p215
aVUS2005028818
p216
aVUS2008185006
p217
aVUS2004255952
p218
aVUS2001007064
p219
aVUS2002077586
p220
aVUS6729326
p221
aVUS7021313
p222
aVUS7021313
p223
aVUS6769430
p224
aVUS6805125
p225
aVUS2007284361
p226
aVUS2008145815
p227
aVUS2008090444
p228
aVUS2008078390
p229
aVUS2008083644
p230
aVUS2008125750
p231
aVUS2007173764
p232
aVUS6543451
p233
aVUS7152603
p234
aVUS2004221842
p235
aVUS6227200
p236
aVUS6129082
p237
aVUS2003056787
p238
aVUS2003106559
p239
aVUS2003047704
p240
aVUS2003196666
p241
aVWO9609082
p242
aVUS5513628
p243
aVUS6588427
p244
aVUS2003116162
p245
aVKR20080003363
p246
aVWO2006103233
p247
aVAU2006228122
p248
asVrepresentative
p249
I0
sS'Applicant-Country'
p250
(lp251
VUS
p252
asVdate
p253
(lp254
S'1994-08-02'
p255
asVinventor
p256
(lp257
VSCHNEIDER JAMES
p258
aVKEE KOK-HIONG
p259
asVkind
p260
VA
sS'Inventor-Country'
p261
(lp262
VUS
p263
asVapplicant-nice
p264
(lp265
VSherwoodMedicalCo
p266
asS'IPCR1'
p267
(lp268
VA
asVcountry
p269
(lp270
VUS
p271
asS'IPCR3'
p272
(lp273
VA61
p274
asVapplicant
p275
(lp276
VSHERWOOD MEDICAL CO
p277
asS'IPCR4'
p278
(lp279
VA61M
p280
asS'IPCR7'
p281
(lp282
VA61M1
p283
aVA61M16
p284
aVF16K5
p285
aVA61M25
p286
asVtitle
p287
VMethod for using a respirator accessory access port and adaptor therefore
p288
sVapplication-ref
p289
F1
s.(dp1
Vclassification
p2
(lp3
VA61M1/00
p4
asVCPC
p5
(lp6
V
asS'Citations'
p7
I0
sVreferences
p8
I0
sVyear
p9
(lp10
S'2007'
p11
asS'label'
p12
VTWM313519
p13
sVpriority-active-indicator
p14
I0
sS'prior-Date'
p15
(lp16
V2006-11-24
p17
asVCitP
p18
S''
sS'prior-dateDate'
p19
(lp20
cdatetime
date
p21
(S'\x07\xd6\x0b\x18'
tRp22
asS'IPCR11'
p23
(lp24
S''
asVCitO
p25
S''
sVdateDate
p26
g21
(S'\x07\xd7\x06\x0b'
tRp27
sVinventor-nice
p28
(lp29
VLeeYuan-Yung
p30
asS'equivalents'
p31
(lp32
VTWM313519U
p33
asS'CitedBy'
p34
(lp35
sVrepresentative
p36
I0
sS'Applicant-Country'
p37
(lp38
VTW
p39
asVdate
p40
(lp41
S'2007-06-11'
p42
asVinventor
p43
(lp44
VLEE YUAN-YUNG
p45
asVkind
p46
VU
sS'Inventor-Country'
p47
(lp48
VTW
p49
asVapplicant-nice
p50
(lp51
VPacificHospitalSupplyCoLtd
p52
asS'IPCR1'
p53
(lp54
VA
asVcountry
p55
(lp56
VTW
p57
asS'IPCR3'
p58
(lp59
VA61
p60
asVapplicant
p61
(lp62
VPACIFIC HOSPITAL SUPPLY CO LTD
p63
asS'IPCR4'
p64
(lp65
VA61M
p66
asS'IPCR7'
p67
(lp68
VA61M1
p69
asVtitle
p70
VRespirator tube adapter of suction machine
p71
sVapplication-ref
p72
F1
s.(dp1
Vclassification
p2
(lp3
VA61M1/00
p4
aVA61M16/04
p5
aVA61M16/20
p6
asVCPC
p7
(lp8
VA61M1/0031
p9
aVA61M16/0463
p10
aVA61M16/202
p11
aVA61M16/0465
p12
asS'Citations'
p13
I0
sVreferences
p14
I5
sVyear
p15
(lp16
S'2002'
p17
asS'label'
p18
VWO02072184
p19
sVpriority-active-indicator
p20
I0
sS'prior-Date'
p21
(lp22
V2001-03-14
p23
asVCitP
p24
(lp25
VSE512807
p26
aVSE182929
p27
aVUS4805611
p28
aVUS5611336
p29
aVGB2021421
p30
asS'prior-dateDate'
p31
(lp32
cdatetime
date
p33
(S'\x07\xd1\x03\x0e'
tRp34
asS'IPCR11'
p35
(lp36
S''
ag5
ag6
asVCitO
p37
(lp38
sVdateDate
p39
g33
(S'\x07\xd2\t\x13'
tRp40
sVinventor-nice
p41
(lp42
VFlodinBjoern
p43
asS'equivalents'
p44
(lp45
VSE522948
p46
aVUS2004107967
p47
aVWO02072184
p48
asS'CitedBy'
p49
(lp50
sVrepresentative
p51
I0
sS'Applicant-Country'
p52
(lp53
VSE
p54
asVdate
p55
(lp56
S'2002-09-19'
p57
asVinventor
p58
(lp59
VFLODIN BJOERN
p60
asVkind
p61
VA1
p62
sS'Inventor-Country'
p63
(lp64
VSE
p65
asVapplicant-nice
p66
(lp67
VFlodinBjoern
p68
asS'IPCR1'
p69
(lp70
VA
asVcountry
p71
(lp72
VWO
p73
asS'IPCR3'
p74
(lp75
VA61
p76
asVapplicant
p77
(lp78
VFLODIN BJOERN
p79
asS'IPCR4'
p80
(lp81
VA61M
p82
asS'IPCR7'
p83
(lp84
VA61M16
p85
asVtitle
p86
VACCESSOIRE DE RESPIRATEUR
p87
sVapplication-ref
p88
F1
s.(dp1
Vclassification
p2
(lp3
VA61M16/00
p4
aVA61M16/12
p5
aVA61M16/20
p6
aVA61M1/00
p7
aVA61M16/06
p8
aVA61M16/08
p9
asVCPC
p10
(lp11
VA61M16/0075
p12
aVA61M16/12
p13
aVA61M16/208
p14
aVA61M16/06
p15
aVA61M16/0816
p16
aVA61M2210/0625
p17
aVA61M1/0072
p18
asS'Citations'
p19
I0
sVreferences
p20
I9
sVyear
p21
(lp22
S'2005'
p23
asS'label'
p24
VGB2407778
p25
sVpriority-active-indicator
p26
I0
sS'prior-Date'
p27
(lp28
V2003-11-10
p29
asVCitP
p30
(lp31
VGB191424624
p32
aVGB1550720
p33
aVBE1006807
p34
aVDE2402192
p35
aVUS4870962
p36
aVUS4898167
p37
aVUS4934360
p38
aVUS5345929
p39
aVUS2003178025
p40
asS'prior-dateDate'
p41
(lp42
cdatetime
date
p43
(S'\x07\xd3\x0b\n'
tRp44
asS'IPCR11'
p45
(lp46
S''
ag8
ag9
asVCitO
p47
(lp48
sVdateDate
p49
g43
(S'\x07\xd5\x05\x0b'
tRp50
sVinventor-nice
p51
(lp52
VListerMartin
p53
asS'equivalents'
p54
(lp55
VGB2407778
p56
asS'CitedBy'
p57
(lp58
sVrepresentative
p59
I0
sS'Applicant-Country'
p60
(lp61
VGB
p62
asVdate
p63
(lp64
S'2005-05-11'
p65
asVinventor
p66
(lp67
VLISTER MARTIN
p68
asVkind
p69
VA
sS'Inventor-Country'
p70
(lp71
VGB
p72
asVapplicant-nice
p73
(lp74
VListerMartin
p75
asS'IPCR1'
p76
(lp77
VA
asVcountry
p78
(lp79
VGB
p80
asS'IPCR3'
p81
(lp82
VA61
p83
asVapplicant
p84
(lp85
VLISTER MARTIN
p86
asS'IPCR4'
p87
(lp88
VA61M
p89
asS'IPCR7'
p90
(lp91
VA61M16
p92
asVtitle
p93
VManual respirator with bellows
p94
sVapplication-ref
p95
F1
s.(dp1
Vclassification
p2
(lp3
VA61M1/00
p4
aVA61B10/00
p5
aVA61M3/00
p6
aVA61M5/00
p7
asVCPC
p8
(lp9
V
asS'Citations'
p10
I0
sVreferences
p11
I0
sVyear
p12
(lp13
S'2007'
p14
asS'label'
p15
VCN2897273
p16
sVpriority-active-indicator
p17
I0
sS'prior-Date'
p18
(lp19
V2006-05-12
p20
asVCitP
p21
S''
sS'prior-dateDate'
p22
(lp23
cdatetime
date
p24
(S'\x07\xd6\x05\x0c'
tRp25
asS'IPCR11'
p26
(lp27
S''
asVCitO
p28
S''
sVdateDate
p29
g24
(S'\x07\xd7\x05\t'
tRp30
sVinventor-nice
p31
(lp32
VWangWeiminWang
p33
asS'equivalents'
p34
(lp35
VCN2897273Y
p36
asS'CitedBy'
p37
(lp38
sVrepresentative
p39
I0
sS'Applicant-Country'
p40
(lp41
VCN
p42
asVdate
p43
(lp44
S'2007-05-09'
p45
asVinventor
p46
(lp47
VWANG WEIMIN WANG
p48
asVkind
p49
VY
sS'Inventor-Country'
p50
(lp51
VCN
p52
asVapplicant-nice
p53
(lp54
VCunsongMedicalProductsCoLt
p55
asS'IPCR1'
p56
(lp57
VA
asVcountry
p58
(lp59
VCN
p60
asS'IPCR3'
p61
(lp62
VA61
p63
asVapplicant
p64
(lp65
VCUNSONG MEDICAL PRODUCTS CO LT
p66
asS'IPCR4'
p67
(lp68
VA61M
p69
asS'IPCR7'
p70
(lp71
VA61M1
p72
aVA61B10
p73
aVA61M3
p74
aVA61M5
p75
asVtitle
p76
VMultifunctional body fluid respirator
p77
sVapplication-ref
p78
F1
s.(dp1
Vclassification
p2
(lp3
VA61M1/00
p4
asVCPC
p5
(lp6
V
asS'Citations'
p7
I0
sVreferences
p8
I0
sVyear
p9
(lp10
S'2007'
p11
asS'label'
p12
VCN2897272
p13
sVpriority-active-indicator
p14
I0
sS'prior-Date'
p15
(lp16
V2006-04-25
p17
asVCitP
p18
S''
sS'prior-dateDate'
p19
(lp20
cdatetime
date
p21
(S'\x07\xd6\x04\x19'
tRp22
asS'IPCR11'
p23
(lp24
S''
asVCitO
p25
S''
sVdateDate
p26
g21
(S'\x07\xd7\x05\t'
tRp27
sVinventor-nice
p28
(lp29
VLiuYanLi
p30
asS'equivalents'
p31
(lp32
VCN2897272Y
p33
asS'CitedBy'
p34
(lp35
sVrepresentative
p36
I0
sS'Applicant-Country'
p37
(lp38
VCN
p39
asVdate
p40
(lp41
S'2007-05-09'
p42
asVinventor
p43
(lp44
VLIU YAN LI
p45
asVkind
p46
VY
sS'Inventor-Country'
p47
(lp48
VCN
p49
asVapplicant-nice
p50
(lp51
VLiuYan
p52
asS'IPCR1'
p53
(lp54
VA
asVcountry
p55
(lp56
VCN
p57
asS'IPCR3'
p58
(lp59
VA61
p60
asVapplicant
p61
(lp62
VLIU YAN
p63
asS'IPCR4'
p64
(lp65
VA61M
p66
asS'IPCR7'
p67
(lp68
VA61M1
p69
asVtitle
p70
VControllable phlegm respirator
p71
sVapplication-ref
p72
F1
s.(dp1
Vclassification
p2
(lp3
VA61H31/00
p4
aVA61M1/14
p5
asVCPC
p6
(lp7
V
asS'Citations'
p8
I0
sVreferences
p9
I0
sVyear
p10
(lp11
S'1994'
p12
asS'label'
p13
VCN2183777
p14
sVpriority-active-indicator
p15
I0
sS'prior-Date'
p16
(lp17
V1994-01-21
p18
asVCitP
p19
S''
sS'prior-dateDate'
p20
(lp21
cdatetime
date
p22
(S'\x07\xca\x01\x15'
tRp23
asS'IPCR11'
p24
(lp25
S''
ag5
asVCitO
p26
S''
sVdateDate
p27
g22
(S'\x07\xca\x0b\x1e'
tRp28
sVinventor-nice
p29
(lp30
VChengliXu
p31
asS'equivalents'
p32
(lp33
VCN2183777Y
p34
asS'CitedBy'
p35
(lp36
sVrepresentative
p37
I0
sS'Applicant-Country'
p38
(lp39
VCN
p40
asVdate
p41
(lp42
S'1994-11-30'
p43
asVinventor
p44
(lp45
VCHENGLI XU
p46
asVkind
p47
VY
sS'Inventor-Country'
p48
(lp49
VCN
p50
asVapplicant-nice
p51
(lp52
VXuChengli
p53
asS'IPCR1'
p54
(lp55
VA
asVcountry
p56
(lp57
VCN
p58
asS'IPCR3'
p59
(lp60
VA61
p61
asVapplicant
p62
(lp63
VXU CHENGLI
p64
asS'IPCR4'
p65
(lp66
VA61H
p67
aVA61M
p68
asS'IPCR7'
p69
(lp70
VA61H31
p71
aVA61M1
p72
asVtitle
p73
VArtificial respirator
p74
sVapplication-ref
p75
F1
s.(dp1
Vclassification
p2
(lp3
VA61M1/18
p4
aVA61M16/00
p5
aVB01D69/08
p6
aVB01D71/38
p7
asVCPC
p8
(lp9
V
asS'Citations'
p10
I3
sVreferences
p11
I0
sVyear
p12
(lp13
S'2002'
p14
asS'label'
p15
VCN1377726
p16
sVpriority-active-indicator
p17
I0
sS'prior-Date'
p18
(lp19
V2002-01-11
p20
asVCitP
p21
S''
sS'prior-dateDate'
p22
(lp23
cdatetime
date
p24
(S'\x07\xd2\x01\x0b'
tRp25
asS'IPCR11'
p26
(lp27
g4
aS''
ag6
ag7
asVCitO
p28
S''
sVdateDate
p29
g24
(S'\x07\xd2\x0b\x06'
tRp30
sVinventor-nice
p31
(lp32
VCuiFuzhai
p33
aVWangXiaohong
p34
aVFengQingling
p35
asS'equivalents'
p36
(lp37
VCN1377726
p38
asS'CitedBy'
p39
(lp40
VCN102604320
p41
aVCN102179217
p42
aVCN102162154
p43
asVrepresentative
p44
I0
sS'Applicant-Country'
p45
(lp46
VCN
p47
asVdate
p48
(lp49
S'2002-11-06'
p50
asVinventor
p51
(lp52
VCUI FUZHAI
p53
aVWANG XIAOHONG
p54
aVFENG QINGLING
p55
asVkind
p56
VA
sS'Inventor-Country'
p57
(lp58
VCN
p59
asVapplicant-nice
p60
(lp61
VUnivTsinghua
p62
asS'IPCR1'
p63
(lp64
VB
asVcountry
p65
(lp66
VCN
p67
asS'IPCR3'
p68
(lp69
VB01
p70
asVapplicant
p71
(lp72
VUNIV TSINGHUA
p73
asS'IPCR4'
p74
(lp75
VB01D
p76
asS'IPCR7'
p77
(lp78
VA61M1
p79
aVA61M16
p80
aVB01D69
p81
aVB01D71
p82
asVtitle
p83
VProcess for preparing phenolic resin hollow fibre film for auxiliary respirator
p84
sVapplication-ref
p85
F1
s.(dp1
Vclassification
p2
(lp3
VA61M1/00
p4
asVCPC
p5
(lp6
VA61M1/0023
p7
aVA61M2205/8206
p8
asS'Citations'
p9
I0
sVreferences
p10
I0
sVyear
p11
(lp12
S'1978'
p13
asS'label'
p14
VAU2363477
p15
sVpriority-active-indicator
p16
I0
sS'prior-Date'
p17
(lp18
V1977-03-25
p19
asVCitP
p20
S''
sS'prior-dateDate'
p21
(lp22
cdatetime
date
p23
(S'\x07\xb9\x03\x19'
tRp24
asS'IPCR11'
p25
(lp26
S''
asVCitO
p27
S''
sVdateDate
p28
g23
(S'\x07\xba\t\x1c'
tRp29
sVinventor-nice
p30
(lp31
S'HawkerMichaelJohn'
p32
aS'MillerRobert'
p33
asS'equivalents'
p34
(lp35
VAU506918B
p36
aVGB1506082
p37
aVAU2363477
p38
asS'CitedBy'
p39
(lp40
sVrepresentative
p41
I0
sS'Applicant-Country'
p42
S''
sVdate
p43
(lp44
S'1978-09-28'
p45
asVinventor
p46
(lp47
VHAWKER MICHAEL JOHN
p48
aVMILLER ROBERT
p49
asVkind
p50
VA
sS'Inventor-Country'
p51
S''
sVapplicant-nice
p52
(lp53
S'CommwIndGases'
p54
asS'IPCR1'
p55
(lp56
VA
asVcountry
p57
(lp58
VAU
p59
asS'IPCR3'
p60
(lp61
VA61
p62
asVapplicant
p63
(lp64
VCOMMW IND GASES
p65
asS'IPCR4'
p66
(lp67
VA61M
p68
asS'IPCR7'
p69
(lp70
VA61M1
p71
asVtitle
p72
VPORTABLE RESPIRATOR
p73
sVapplication-ref
p74
F1
s.