(dp1
S'brevets'
p2
(lp3
(dp4
Vdocument-id
p5
(dp6
Vcountry
p7
(dp8
V$
VCN
p9
ssVkind
p10
(dp11
V$
VU
ssV@document-id-type
p12
Vdocdb
p13
sVdoc-number
p14
(dp15
V$
V204671687
p16
sssV@family-id
p17
V54171416
p18
sV@system
p19
Vops.epo.org
p20
sa(dp21
Vdocument-id
p22
(dp23
Vcountry
p24
(dp25
V$
VCN
p26
ssVkind
p27
(dp28
V$
VU
ssV@document-id-type
p29
Vdocdb
p30
sVdoc-number
p31
(dp32
V$
V204501985
p33
sssV@family-id
p34
V53699989
p35
sV@system
p36
Vops.epo.org
p37
sa(dp38
Vdocument-id
p39
(dp40
Vcountry
p41
(dp42
V$
VCN
p43
ssVkind
p44
(dp45
V$
VU
ssV@document-id-type
p46
Vdocdb
p47
sVdoc-number
p48
(dp49
V$
V204446856
p50
sssV@family-id
p51
V53653808
p52
sV@system
p53
Vops.epo.org
p54
sa(dp55
Vdocument-id
p56
(dp57
Vcountry
p58
(dp59
V$
VCN
p60
ssVkind
p61
(dp62
V$
VU
ssV@document-id-type
p63
Vdocdb
p64
sVdoc-number
p65
(dp66
V$
V204092769
p67
sssV@family-id
p68
V52261242
p69
sV@system
p70
Vops.epo.org
p71
sa(dp72
Vdocument-id
p73
(dp74
Vcountry
p75
(dp76
V$
VCN
p77
ssVkind
p78
(dp79
V$
VU
ssV@document-id-type
p80
Vdocdb
p81
sVdoc-number
p82
(dp83
V$
V203898874
p84
sssV@family-id
p85
V51773170
p86
sV@system
p87
Vops.epo.org
p88
sa(dp89
Vdocument-id
p90
(dp91
Vcountry
p92
(dp93
V$
VCN
p94
ssVkind
p95
(dp96
V$
VU
ssV@document-id-type
p97
Vdocdb
p98
sVdoc-number
p99
(dp100
V$
V203263989
p101
sssV@family-id
p102
V49494492
p103
sV@system
p104
Vops.epo.org
p105
sa(dp106
Vdocument-id
p107
(dp108
Vcountry
p109
(dp110
V$
VCN
p111
ssVkind
p112
(dp113
V$
VU
ssV@document-id-type
p114
Vdocdb
p115
sVdoc-number
p116
(dp117
V$
V203123227
p118
sssV@family-id
p119
V48931261
p120
sV@system
p121
Vops.epo.org
p122
sa(dp123
Vdocument-id
p124
(dp125
Vcountry
p126
(dp127
V$
VCN
p128
ssVkind
p129
(dp130
V$
VU
ssV@document-id-type
p131
Vdocdb
p132
sVdoc-number
p133
(dp134
V$
V202859823
p135
sssV@family-id
p136
V48026585
p137
sV@system
p138
Vops.epo.org
p139
sa(dp140
Vdocument-id
p141
(dp142
Vcountry
p143
(dp144
V$
VCN
p145
ssVkind
p146
(dp147
V$
VU
ssV@document-id-type
p148
Vdocdb
p149
sVdoc-number
p150
(dp151
V$
V202538100
p152
sssV@family-id
p153
V47158798
p154
sV@system
p155
Vops.epo.org
p156
sa(dp157
Vdocument-id
p158
(dp159
Vcountry
p160
(dp161
V$
VCN
p162
ssVkind
p163
(dp164
V$
VA
ssV@document-id-type
p165
Vdocdb
p166
sVdoc-number
p167
(dp168
V$
V101756782
p169
sssV@family-id
p170
V42488270
p171
sV@system
p172
Vops.epo.org
p173
sa(dp174
Vdocument-id
p175
(dp176
Vcountry
p177
(dp178
V$
VCN
p179
ssVkind
p180
(dp181
V$
VY
ssV@document-id-type
p182
Vdocdb
p183
sVdoc-number
p184
(dp185
V$
V201290920
p186
sssV@family-id
p187
V41004372
p188
sV@system
p189
Vops.epo.org
p190
sa(dp191
Vdocument-id
p192
(dp193
Vcountry
p194
(dp195
V$
VUS
p196
ssVkind
p197
(dp198
V$
VA
ssV@document-id-type
p199
Vdocdb
p200
sVdoc-number
p201
(dp202
V$
V3946736
p203
sssV@family-id
p204
V24052934
p205
sV@system
p206
Vops.epo.org
p207
sa(dp208
Vdocument-id
p209
(dp210
Vcountry
p211
(dp212
V$
VUS
p213
ssVkind
p214
(dp215
V$
VA1
p216
ssV@document-id-type
p217
Vdocdb
p218
sVdoc-number
p219
(dp220
V$
V2004107967
p221
sssV@family-id
p222
V20283351
p223
sV@system
p224
Vops.epo.org
p225
sa(dp226
Vdocument-id
p227
(dp228
Vcountry
p229
(dp230
V$
VUS
p231
ssVkind
p232
(dp233
V$
VA
ssV@document-id-type
p234
Vdocdb
p235
sVdoc-number
p236
(dp237
V$
V3323521
p238
sssV@family-id
p239
V11043236
p240
sV@system
p241
Vops.epo.org
p242
sa(dp243
Vdocument-id
p244
(dp245
Vcountry
p246
(dp247
V$
VUS
p248
ssVkind
p249
(dp250
V$
VA
ssV@document-id-type
p251
Vdocdb
p252
sVdoc-number
p253
(dp254
V$
V5333606
p255
sssV@family-id
p256
V25361697
p257
sV@system
p258
Vops.epo.org
p259
sa(dp260
Vdocument-id
p261
(dp262
Vcountry
p263
(dp264
V$
VTW
p265
ssVkind
p266
(dp267
V$
VU
ssV@document-id-type
p268
Vdocdb
p269
sVdoc-number
p270
(dp271
V$
VM313519
p272
sssV@family-id
p273
V38824477
p274
sV@system
p275
Vops.epo.org
p276
sa(dp277
Vdocument-id
p278
(dp279
Vcountry
p280
(dp281
V$
VWO
p282
ssVkind
p283
(dp284
V$
VA1
p285
ssV@document-id-type
p286
Vdocdb
p287
sVdoc-number
p288
(dp289
V$
V02072184
p290
sssV@family-id
p291
V20283351
p292
sV@system
p293
Vops.epo.org
p294
sa(dp295
Vdocument-id
p296
(dp297
Vcountry
p298
(dp299
V$
VGB
p300
ssVkind
p301
(dp302
V$
VA
ssV@document-id-type
p303
Vdocdb
p304
sVdoc-number
p305
(dp306
V$
V2407778
p307
sssV@family-id
p308
V29726203
p309
sV@system
p310
Vops.epo.org
p311
sa(dp312
Vdocument-id
p313
(dp314
Vcountry
p315
(dp316
V$
VCN
p317
ssVkind
p318
(dp319
V$
VY
ssV@document-id-type
p320
Vdocdb
p321
sVdoc-number
p322
(dp323
V$
V2897273
p324
sssV@family-id
p325
V38072616
p326
sV@system
p327
Vops.epo.org
p328
sa(dp329
Vdocument-id
p330
(dp331
Vcountry
p332
(dp333
V$
VCN
p334
ssVkind
p335
(dp336
V$
VY
ssV@document-id-type
p337
Vdocdb
p338
sVdoc-number
p339
(dp340
V$
V2897272
p341
sssV@family-id
p342
V38072615
p343
sV@system
p344
Vops.epo.org
p345
sa(dp346
Vdocument-id
p347
(dp348
Vcountry
p349
(dp350
V$
VCN
p351
ssVkind
p352
(dp353
V$
VY
ssV@document-id-type
p354
Vdocdb
p355
sVdoc-number
p356
(dp357
V$
V2183777
p358
sssV@family-id
p359
V33838813
p360
sV@system
p361
Vops.epo.org
p362
sa(dp363
Vdocument-id
p364
(dp365
Vcountry
p366
(dp367
V$
VCN
p368
ssVkind
p369
(dp370
V$
VA
ssV@document-id-type
p371
Vdocdb
p372
sVdoc-number
p373
(dp374
V$
V1377726
p375
sssV@family-id
p376
V4739273
p377
sV@system
p378
Vops.epo.org
p379
sa(dp380
Vdocument-id
p381
(dp382
Vcountry
p383
(dp384
V$
VAU
p385
ssVkind
p386
(dp387
V$
VA
ssV@document-id-type
p388
Vdocdb
p389
sVdoc-number
p390
(dp391
V$
V2363477
p392
sssV@family-id
p393
V10002151
p394
sV@system
p395
Vops.epo.org
p396
sasS'requete'
p397
S'TI=Respirator AND IPC= A61M1'
p398
sS'number'
p399
I23
s.