(dp1
S'ficBrevets'
p2
S'Lentille'
p3
sS'YetGathered'
p4
(lp5
VWO2011015115
p6
aVCA2694840
p7
aVWO2007108663
p8
aVWO2007091771
p9
aVWO2007091761
p10
aVCH681276
p11
aVCA1298439
p12
aVCA1287993
p13
aVCA1256700
p14
aVCA989177
p15
aVCA931760
p16
asS'requete'
p17
S'TA=lentille'
p18
s.