(dp1
S'ficBrevets'
p2
S'Lentille'
p3
sS'YetGathered'
p4
(lp5
VWO2007108663
p6
aVCA931760
p7
aVCA1287993
p8
aVCA989177
p9
aVCA2694840
p10
aVCA1256700
p11
aVCA1298439
p12
aVWO2007091761
p13
aVWO2007091771
p14
aVWO2011015115
p15
asS'requete'
p16
S'lentille'
p17
s.