(dp1
S'ficBrevets'
p2
S'Lentille'
p3
sS'YetGathered'
p4
(lp5
VWO2011015115
p6
aVCA2694840
p7
aVWO2007108663
p8
aVWO2007091771
p9
aVWO2007091761
p10
aVCA1298439
p11
aVCA1287993
p12
aVCA1256700
p13
aVCA989177
p14
aVCA931760
p15
asS'requete'
p16
S'lentille'
p17
s.